ARM GAS  /tmp/ccuTqYFt.s 			page 1


   1              		.cpu cortex-m3
   2              		.eabi_attribute 20, 1
   3              		.eabi_attribute 21, 1
   4              		.eabi_attribute 23, 3
   5              		.eabi_attribute 24, 1
   6              		.eabi_attribute 25, 1
   7              		.eabi_attribute 26, 1
   8              		.eabi_attribute 30, 1
   9              		.eabi_attribute 34, 1
  10              		.eabi_attribute 18, 4
  11              		.file	"flash.c"
  12              		.text
  13              	.Ltext0:
  14              		.cfi_sections	.debug_frame
  15              		.section	.text.GetPage,"ax",%progbits
  16              		.align	1
  17              		.arch armv7-m
  18              		.syntax unified
  19              		.thumb
  20              		.thumb_func
  21              		.fpu softvfp
  23              	GetPage:
  24              	.LVL0:
  25              	.LFB66:
  26              		.file 1 "Core/Src/flash.c"
   1:Core/Src/flash.c **** /*
   2:Core/Src/flash.c ****  * flash.c
   3:Core/Src/flash.c ****  *
   4:Core/Src/flash.c ****  *  Created on: Nov 5, 2021
   5:Core/Src/flash.c ****  *      Author: Steven
   6:Core/Src/flash.c ****  */
   7:Core/Src/flash.c **** 
   8:Core/Src/flash.c **** #include "flash.h"
   9:Core/Src/flash.c **** #include "string.h"
  10:Core/Src/flash.c **** #include "stdio.h"
  11:Core/Src/flash.c **** 
  12:Core/Src/flash.c **** 
  13:Core/Src/flash.c **** static uint32_t GetPage(uint32_t Address)
  14:Core/Src/flash.c **** {
  27              		.loc 1 14 1 view -0
  28              		.cfi_startproc
  29              		@ args = 0, pretend = 0, frame = 0
  30              		@ frame_needed = 0, uses_anonymous_args = 0
  31              		@ link register save eliminated.
  32              		.loc 1 14 1 is_stmt 0 view .LVU1
  33 0000 0146     		mov	r1, r0
  15:Core/Src/flash.c ****   for (int indx=0; indx<256; indx++)
  34              		.loc 1 15 3 is_stmt 1 view .LVU2
  35              	.LBB2:
  36              		.loc 1 15 8 view .LVU3
  37              	.LVL1:
  38              		.loc 1 15 12 is_stmt 0 view .LVU4
  39 0002 0023     		movs	r3, #0
  40              		.loc 1 15 3 view .LVU5
  41 0004 00E0     		b	.L2
  42              	.LVL2:
  43              	.L3:
ARM GAS  /tmp/ccuTqYFt.s 			page 2


  44              		.loc 1 15 30 is_stmt 1 discriminator 2 view .LVU6
  45              		.loc 1 15 34 is_stmt 0 discriminator 2 view .LVU7
  46 0006 0133     		adds	r3, r3, #1
  47              	.LVL3:
  48              	.L2:
  49              		.loc 1 15 20 is_stmt 1 discriminator 1 view .LVU8
  50              		.loc 1 15 3 is_stmt 0 discriminator 1 view .LVU9
  51 0008 FF2B     		cmp	r3, #255
  52 000a 0BDC     		bgt	.L6
  16:Core/Src/flash.c ****   {
  17:Core/Src/flash.c **** 	  if((Address < (0x08000000 + (FLASH_PAGE_SIZE *(indx+1))) ) && (Address >= (0x08000000 + FLASH_PA
  53              		.loc 1 17 4 is_stmt 1 view .LVU10
  54              		.loc 1 17 30 is_stmt 0 view .LVU11
  55 000c 03F10112 		add	r2, r3, #65537
  56              		.loc 1 17 6 view .LVU12
  57 0010 B1EBC22F 		cmp	r1, r2, lsl #11
  58 0014 F7D2     		bcs	.L3
  59              		.loc 1 17 90 discriminator 1 view .LVU13
  60 0016 03F58032 		add	r2, r3, #65536
  61 001a D002     		lsls	r0, r2, #11
  62              		.loc 1 17 63 discriminator 1 view .LVU14
  63 001c B1EBC22F 		cmp	r1, r2, lsl #11
  64 0020 F1D3     		bcc	.L3
  65              	.L1:
  66              		.loc 1 17 63 discriminator 1 view .LVU15
  67              	.LBE2:
  18:Core/Src/flash.c **** 	  {
  19:Core/Src/flash.c **** 		  return (0x08000000 + FLASH_PAGE_SIZE*indx);
  20:Core/Src/flash.c **** 	  }
  21:Core/Src/flash.c ****   }
  22:Core/Src/flash.c **** 
  23:Core/Src/flash.c ****   return 0;
  24:Core/Src/flash.c **** }
  68              		.loc 1 24 1 view .LVU16
  69 0022 7047     		bx	lr
  70              	.L6:
  23:Core/Src/flash.c **** }
  71              		.loc 1 23 10 view .LVU17
  72 0024 0020     		movs	r0, #0
  73 0026 FCE7     		b	.L1
  74              		.cfi_endproc
  75              	.LFE66:
  77              		.section	.text.float2Bytes,"ax",%progbits
  78              		.align	1
  79              		.global	float2Bytes
  80              		.syntax unified
  81              		.thumb
  82              		.thumb_func
  83              		.fpu softvfp
  85              	float2Bytes:
  86              	.LVL4:
  87              	.LFB67:
  25:Core/Src/flash.c **** 
  26:Core/Src/flash.c **** 
  27:Core/Src/flash.c **** uint8_t bytes_temp[4];
  28:Core/Src/flash.c **** 
  29:Core/Src/flash.c **** 
ARM GAS  /tmp/ccuTqYFt.s 			page 3


  30:Core/Src/flash.c **** void float2Bytes(uint8_t * ftoa_bytes_temp,float float_variable)
  31:Core/Src/flash.c **** {
  88              		.loc 1 31 1 is_stmt 1 view -0
  89              		.cfi_startproc
  90              		@ args = 0, pretend = 0, frame = 8
  91              		@ frame_needed = 0, uses_anonymous_args = 0
  92              		@ link register save eliminated.
  93              		.loc 1 31 1 is_stmt 0 view .LVU19
  94 0000 82B0     		sub	sp, sp, #8
  95              	.LCFI0:
  96              		.cfi_def_cfa_offset 8
  32:Core/Src/flash.c ****     union {
  97              		.loc 1 32 5 is_stmt 1 view .LVU20
  33:Core/Src/flash.c ****       float a;
  34:Core/Src/flash.c ****       uint8_t bytes[4];
  35:Core/Src/flash.c ****     } thing;
  36:Core/Src/flash.c **** 
  37:Core/Src/flash.c ****     thing.a = float_variable;
  98              		.loc 1 37 5 view .LVU21
  99              		.loc 1 37 13 is_stmt 0 view .LVU22
 100 0002 0191     		str	r1, [sp, #4]	@ float
  38:Core/Src/flash.c **** 
  39:Core/Src/flash.c ****     for (uint8_t i = 0; i < 4; i++) {
 101              		.loc 1 39 5 is_stmt 1 view .LVU23
 102              	.LBB3:
 103              		.loc 1 39 10 view .LVU24
 104              	.LVL5:
 105              		.loc 1 39 18 is_stmt 0 view .LVU25
 106 0004 0023     		movs	r3, #0
 107              		.loc 1 39 5 view .LVU26
 108 0006 06E0     		b	.L8
 109              	.LVL6:
 110              	.L9:
  40:Core/Src/flash.c ****       ftoa_bytes_temp[i] = thing.bytes[i];
 111              		.loc 1 40 7 is_stmt 1 discriminator 3 view .LVU27
 112              		.loc 1 40 39 is_stmt 0 discriminator 3 view .LVU28
 113 0008 02AA     		add	r2, sp, #8
 114 000a 1A44     		add	r2, r2, r3
 115 000c 12F8042C 		ldrb	r2, [r2, #-4]	@ zero_extendqisi2
 116              		.loc 1 40 26 discriminator 3 view .LVU29
 117 0010 C254     		strb	r2, [r0, r3]
  39:Core/Src/flash.c ****       ftoa_bytes_temp[i] = thing.bytes[i];
 118              		.loc 1 39 32 is_stmt 1 discriminator 3 view .LVU30
  39:Core/Src/flash.c ****       ftoa_bytes_temp[i] = thing.bytes[i];
 119              		.loc 1 39 33 is_stmt 0 discriminator 3 view .LVU31
 120 0012 0133     		adds	r3, r3, #1
 121              	.LVL7:
  39:Core/Src/flash.c ****       ftoa_bytes_temp[i] = thing.bytes[i];
 122              		.loc 1 39 33 discriminator 3 view .LVU32
 123 0014 DBB2     		uxtb	r3, r3
 124              	.LVL8:
 125              	.L8:
  39:Core/Src/flash.c ****       ftoa_bytes_temp[i] = thing.bytes[i];
 126              		.loc 1 39 25 is_stmt 1 discriminator 1 view .LVU33
  39:Core/Src/flash.c ****       ftoa_bytes_temp[i] = thing.bytes[i];
 127              		.loc 1 39 5 is_stmt 0 discriminator 1 view .LVU34
 128 0016 032B     		cmp	r3, #3
ARM GAS  /tmp/ccuTqYFt.s 			page 4


 129 0018 F6D9     		bls	.L9
 130              	.LBE3:
  41:Core/Src/flash.c ****     }
  42:Core/Src/flash.c **** 
  43:Core/Src/flash.c **** }
 131              		.loc 1 43 1 view .LVU35
 132 001a 02B0     		add	sp, sp, #8
 133              	.LCFI1:
 134              		.cfi_def_cfa_offset 0
 135              		@ sp needed
 136 001c 7047     		bx	lr
 137              		.cfi_endproc
 138              	.LFE67:
 140              		.section	.text.Bytes2float,"ax",%progbits
 141              		.align	1
 142              		.global	Bytes2float
 143              		.syntax unified
 144              		.thumb
 145              		.thumb_func
 146              		.fpu softvfp
 148              	Bytes2float:
 149              	.LVL9:
 150              	.LFB68:
  44:Core/Src/flash.c **** 
  45:Core/Src/flash.c **** float Bytes2float(uint8_t * ftoa_bytes_temp)
  46:Core/Src/flash.c **** {
 151              		.loc 1 46 1 is_stmt 1 view -0
 152              		.cfi_startproc
 153              		@ args = 0, pretend = 0, frame = 8
 154              		@ frame_needed = 0, uses_anonymous_args = 0
 155              		@ link register save eliminated.
 156              		.loc 1 46 1 is_stmt 0 view .LVU37
 157 0000 82B0     		sub	sp, sp, #8
 158              	.LCFI2:
 159              		.cfi_def_cfa_offset 8
  47:Core/Src/flash.c ****     union {
 160              		.loc 1 47 5 is_stmt 1 view .LVU38
  48:Core/Src/flash.c ****       float a;
  49:Core/Src/flash.c ****       uint8_t bytes[4];
  50:Core/Src/flash.c ****     } thing;
  51:Core/Src/flash.c **** 
  52:Core/Src/flash.c ****     for (uint8_t i = 0; i < 4; i++) {
 161              		.loc 1 52 5 view .LVU39
 162              	.LBB4:
 163              		.loc 1 52 10 view .LVU40
 164              	.LVL10:
 165              		.loc 1 52 18 is_stmt 0 view .LVU41
 166 0002 0023     		movs	r3, #0
 167              		.loc 1 52 5 view .LVU42
 168 0004 06E0     		b	.L12
 169              	.LVL11:
 170              	.L13:
  53:Core/Src/flash.c ****     	thing.bytes[i] = ftoa_bytes_temp[i];
 171              		.loc 1 53 6 is_stmt 1 discriminator 3 view .LVU43
 172              		.loc 1 53 38 is_stmt 0 discriminator 3 view .LVU44
 173 0006 C15C     		ldrb	r1, [r0, r3]	@ zero_extendqisi2
 174              		.loc 1 53 21 discriminator 3 view .LVU45
ARM GAS  /tmp/ccuTqYFt.s 			page 5


 175 0008 02AA     		add	r2, sp, #8
 176 000a 1A44     		add	r2, r2, r3
 177 000c 02F8041C 		strb	r1, [r2, #-4]
  52:Core/Src/flash.c ****     	thing.bytes[i] = ftoa_bytes_temp[i];
 178              		.loc 1 52 32 is_stmt 1 discriminator 3 view .LVU46
  52:Core/Src/flash.c ****     	thing.bytes[i] = ftoa_bytes_temp[i];
 179              		.loc 1 52 33 is_stmt 0 discriminator 3 view .LVU47
 180 0010 0133     		adds	r3, r3, #1
 181              	.LVL12:
  52:Core/Src/flash.c ****     	thing.bytes[i] = ftoa_bytes_temp[i];
 182              		.loc 1 52 33 discriminator 3 view .LVU48
 183 0012 DBB2     		uxtb	r3, r3
 184              	.LVL13:
 185              	.L12:
  52:Core/Src/flash.c ****     	thing.bytes[i] = ftoa_bytes_temp[i];
 186              		.loc 1 52 25 is_stmt 1 discriminator 1 view .LVU49
  52:Core/Src/flash.c ****     	thing.bytes[i] = ftoa_bytes_temp[i];
 187              		.loc 1 52 5 is_stmt 0 discriminator 1 view .LVU50
 188 0014 032B     		cmp	r3, #3
 189 0016 F6D9     		bls	.L13
 190              	.LBE4:
  54:Core/Src/flash.c ****     }
  55:Core/Src/flash.c **** 
  56:Core/Src/flash.c ****    float float_variable =  thing.a;
 191              		.loc 1 56 4 is_stmt 1 view .LVU51
 192              	.LVL14:
  57:Core/Src/flash.c ****    return float_variable;
 193              		.loc 1 57 4 view .LVU52
  58:Core/Src/flash.c **** }
 194              		.loc 1 58 1 is_stmt 0 view .LVU53
 195 0018 0198     		ldr	r0, [sp, #4]	@ float
 196              	.LVL15:
 197              		.loc 1 58 1 view .LVU54
 198 001a 02B0     		add	sp, sp, #8
 199              	.LCFI3:
 200              		.cfi_def_cfa_offset 0
 201              	.LVL16:
 202              		.loc 1 58 1 view .LVU55
 203              		@ sp needed
 204 001c 7047     		bx	lr
 205              		.cfi_endproc
 206              	.LFE68:
 208              		.section	.text.Flash_Write_Data,"ax",%progbits
 209              		.align	1
 210              		.global	Flash_Write_Data
 211              		.syntax unified
 212              		.thumb
 213              		.thumb_func
 214              		.fpu softvfp
 216              	Flash_Write_Data:
 217              	.LVL17:
 218              	.LFB69:
  59:Core/Src/flash.c **** 
  60:Core/Src/flash.c **** uint32_t Flash_Write_Data (uint32_t StartPageAddress, uint32_t *Data, uint16_t numberofwords)
  61:Core/Src/flash.c **** {
 219              		.loc 1 61 1 is_stmt 1 view -0
 220              		.cfi_startproc
ARM GAS  /tmp/ccuTqYFt.s 			page 6


 221              		@ args = 0, pretend = 0, frame = 8
 222              		@ frame_needed = 0, uses_anonymous_args = 0
 223              		.loc 1 61 1 is_stmt 0 view .LVU57
 224 0000 2DE9F041 		push	{r4, r5, r6, r7, r8, lr}
 225              	.LCFI4:
 226              		.cfi_def_cfa_offset 24
 227              		.cfi_offset 4, -24
 228              		.cfi_offset 5, -20
 229              		.cfi_offset 6, -16
 230              		.cfi_offset 7, -12
 231              		.cfi_offset 8, -8
 232              		.cfi_offset 14, -4
 233 0004 82B0     		sub	sp, sp, #8
 234              	.LCFI5:
 235              		.cfi_def_cfa_offset 32
 236 0006 0546     		mov	r5, r0
 237 0008 0E46     		mov	r6, r1
 238 000a 9046     		mov	r8, r2
  62:Core/Src/flash.c **** 
  63:Core/Src/flash.c **** 	static FLASH_EraseInitTypeDef EraseInitStruct;
 239              		.loc 1 63 2 is_stmt 1 view .LVU58
  64:Core/Src/flash.c **** 	uint32_t PAGEError;
 240              		.loc 1 64 2 view .LVU59
  65:Core/Src/flash.c **** 	int sofar=0;
 241              		.loc 1 65 2 view .LVU60
 242              	.LVL18:
  66:Core/Src/flash.c **** 
  67:Core/Src/flash.c **** 	  /* Unlock the Flash to enable the flash control register access *************/
  68:Core/Src/flash.c **** 	   HAL_FLASH_Unlock();
 243              		.loc 1 68 5 view .LVU61
 244 000c FFF7FEFF 		bl	HAL_FLASH_Unlock
 245              	.LVL19:
  69:Core/Src/flash.c **** 
  70:Core/Src/flash.c **** 	   /* Erase the user Flash area*/
  71:Core/Src/flash.c **** 
  72:Core/Src/flash.c **** 	  uint32_t StartPage = GetPage(StartPageAddress);
 246              		.loc 1 72 4 view .LVU62
 247              		.loc 1 72 25 is_stmt 0 view .LVU63
 248 0010 2846     		mov	r0, r5
 249 0012 FFF7FEFF 		bl	GetPage
 250              	.LVL20:
 251 0016 0446     		mov	r4, r0
 252              	.LVL21:
  73:Core/Src/flash.c **** 	  uint32_t EndPageAdress = StartPageAddress + numberofwords*4;
 253              		.loc 1 73 4 is_stmt 1 view .LVU64
  74:Core/Src/flash.c **** 	  uint32_t EndPage = GetPage(EndPageAdress);
 254              		.loc 1 74 4 view .LVU65
 255              		.loc 1 74 23 is_stmt 0 view .LVU66
 256 0018 05EB8800 		add	r0, r5, r8, lsl #2
 257              	.LVL22:
 258              		.loc 1 74 23 view .LVU67
 259 001c FFF7FEFF 		bl	GetPage
 260              	.LVL23:
 261              		.loc 1 74 23 view .LVU68
 262 0020 0346     		mov	r3, r0
 263              	.LVL24:
  75:Core/Src/flash.c **** 
ARM GAS  /tmp/ccuTqYFt.s 			page 7


  76:Core/Src/flash.c **** 	   /* Fill EraseInit structure*/
  77:Core/Src/flash.c **** 	   EraseInitStruct.TypeErase   = FLASH_TYPEERASE_PAGES;
 264              		.loc 1 77 5 is_stmt 1 view .LVU69
 265              		.loc 1 77 33 is_stmt 0 view .LVU70
 266 0022 1348     		ldr	r0, .L24
 267              	.LVL25:
 268              		.loc 1 77 33 view .LVU71
 269 0024 0022     		movs	r2, #0
 270 0026 0260     		str	r2, [r0]
  78:Core/Src/flash.c **** 	   EraseInitStruct.PageAddress = StartPage;
 271              		.loc 1 78 5 is_stmt 1 view .LVU72
 272              		.loc 1 78 33 is_stmt 0 view .LVU73
 273 0028 8460     		str	r4, [r0, #8]
  79:Core/Src/flash.c **** 	   EraseInitStruct.NbPages     = ((EndPage - StartPage)/FLASH_PAGE_SIZE) +1;
 274              		.loc 1 79 5 is_stmt 1 view .LVU74
 275              		.loc 1 79 45 is_stmt 0 view .LVU75
 276 002a 1B1B     		subs	r3, r3, r4
 277              	.LVL26:
 278              		.loc 1 79 57 view .LVU76
 279 002c DB0A     		lsrs	r3, r3, #11
 280              		.loc 1 79 75 view .LVU77
 281 002e 0133     		adds	r3, r3, #1
 282              		.loc 1 79 33 view .LVU78
 283 0030 C360     		str	r3, [r0, #12]
  80:Core/Src/flash.c **** 
  81:Core/Src/flash.c **** 	   if (HAL_FLASHEx_Erase(&EraseInitStruct, &PAGEError) != HAL_OK)
 284              		.loc 1 81 5 is_stmt 1 view .LVU79
 285              		.loc 1 81 9 is_stmt 0 view .LVU80
 286 0032 01A9     		add	r1, sp, #4
 287 0034 FFF7FEFF 		bl	HAL_FLASHEx_Erase
 288              	.LVL27:
 289              		.loc 1 81 8 view .LVU81
 290 0038 70B9     		cbnz	r0, .L22
 291 003a 4746     		mov	r7, r8
  65:Core/Src/flash.c **** 
 292              		.loc 1 65 6 view .LVU82
 293 003c 0024     		movs	r4, #0
 294              	.LVL28:
 295              	.L16:
  82:Core/Src/flash.c **** 	   {
  83:Core/Src/flash.c **** 	     /*Error occurred while page erase.*/
  84:Core/Src/flash.c **** 		  return HAL_FLASH_GetError ();
  85:Core/Src/flash.c **** 	   }
  86:Core/Src/flash.c **** 
  87:Core/Src/flash.c **** 	   /* Program the user Flash area word by word*/
  88:Core/Src/flash.c **** 
  89:Core/Src/flash.c **** 	   while (sofar<numberofwords)
 296              		.loc 1 89 11 is_stmt 1 view .LVU83
 297 003e A742     		cmp	r7, r4
 298 0040 10DD     		ble	.L23
  90:Core/Src/flash.c **** 	   {
  91:Core/Src/flash.c **** 	     if (HAL_FLASH_Program(FLASH_TYPEPROGRAM_WORD, StartPageAddress, Data[sofar]) == HAL_OK)
 299              		.loc 1 91 7 view .LVU84
 300              		.loc 1 91 11 is_stmt 0 view .LVU85
 301 0042 56F82420 		ldr	r2, [r6, r4, lsl #2]
 302 0046 0023     		movs	r3, #0
 303 0048 2946     		mov	r1, r5
ARM GAS  /tmp/ccuTqYFt.s 			page 8


 304 004a 0220     		movs	r0, #2
 305 004c FFF7FEFF 		bl	HAL_FLASH_Program
 306              	.LVL29:
 307              		.loc 1 91 10 view .LVU86
 308 0050 28B9     		cbnz	r0, .L18
  92:Core/Src/flash.c **** 	     {
  93:Core/Src/flash.c **** 	    	 StartPageAddress += 4;  // use StartPageAddress += 2 for half word and 8 for double word
 309              		.loc 1 93 8 is_stmt 1 view .LVU87
 310              		.loc 1 93 25 is_stmt 0 view .LVU88
 311 0052 0435     		adds	r5, r5, #4
 312              	.LVL30:
  94:Core/Src/flash.c **** 	    	 sofar++;
 313              		.loc 1 94 8 is_stmt 1 view .LVU89
 314              		.loc 1 94 13 is_stmt 0 view .LVU90
 315 0054 0134     		adds	r4, r4, #1
 316              	.LVL31:
 317              		.loc 1 94 13 view .LVU91
 318 0056 F2E7     		b	.L16
 319              	.LVL32:
 320              	.L22:
  84:Core/Src/flash.c **** 	   }
 321              		.loc 1 84 5 is_stmt 1 view .LVU92
  84:Core/Src/flash.c **** 	   }
 322              		.loc 1 84 12 is_stmt 0 view .LVU93
 323 0058 FFF7FEFF 		bl	HAL_FLASH_GetError
 324              	.LVL33:
 325 005c 05E0     		b	.L15
 326              	.LVL34:
 327              	.L18:
  95:Core/Src/flash.c **** 	     }
  96:Core/Src/flash.c **** 	     else
  97:Core/Src/flash.c **** 	     {
  98:Core/Src/flash.c **** 	       /* Error occurred while writing data in Flash memory*/
  99:Core/Src/flash.c **** 	    	 return HAL_FLASH_GetError ();
 328              		.loc 1 99 8 is_stmt 1 view .LVU94
 329              		.loc 1 99 15 is_stmt 0 view .LVU95
 330 005e FFF7FEFF 		bl	HAL_FLASH_GetError
 331              	.LVL35:
 332 0062 02E0     		b	.L15
 333              	.L23:
 100:Core/Src/flash.c **** 	     }
 101:Core/Src/flash.c **** 	   }
 102:Core/Src/flash.c **** 
 103:Core/Src/flash.c **** 	   /* Lock the Flash to disable the flash control register access (recommended
 104:Core/Src/flash.c **** 	      to protect the FLASH memory against possible unwanted operation) *********/
 105:Core/Src/flash.c **** 	   HAL_FLASH_Lock();
 334              		.loc 1 105 5 is_stmt 1 view .LVU96
 335 0064 FFF7FEFF 		bl	HAL_FLASH_Lock
 336              	.LVL36:
 106:Core/Src/flash.c **** 
 107:Core/Src/flash.c **** 	   return 0;
 337              		.loc 1 107 5 view .LVU97
 338              		.loc 1 107 12 is_stmt 0 view .LVU98
 339 0068 0020     		movs	r0, #0
 340              	.LVL37:
 341              	.L15:
 108:Core/Src/flash.c **** }
ARM GAS  /tmp/ccuTqYFt.s 			page 9


 342              		.loc 1 108 1 view .LVU99
 343 006a 02B0     		add	sp, sp, #8
 344              	.LCFI6:
 345              		.cfi_def_cfa_offset 24
 346              		@ sp needed
 347 006c BDE8F081 		pop	{r4, r5, r6, r7, r8, pc}
 348              	.LVL38:
 349              	.L25:
 350              		.loc 1 108 1 view .LVU100
 351              		.align	2
 352              	.L24:
 353 0070 00000000 		.word	.LANCHOR0
 354              		.cfi_endproc
 355              	.LFE69:
 357              		.section	.text.Flash_Read_Data,"ax",%progbits
 358              		.align	1
 359              		.global	Flash_Read_Data
 360              		.syntax unified
 361              		.thumb
 362              		.thumb_func
 363              		.fpu softvfp
 365              	Flash_Read_Data:
 366              	.LFB70:
 109:Core/Src/flash.c **** 
 110:Core/Src/flash.c **** 
 111:Core/Src/flash.c **** void Flash_Read_Data (uint32_t StartPageAddress, uint32_t *RxBuf, uint16_t numberofwords)
 112:Core/Src/flash.c **** {
 367              		.loc 1 112 1 is_stmt 1 view -0
 368              		.cfi_startproc
 369              		@ args = 0, pretend = 0, frame = 0
 370              		@ frame_needed = 0, uses_anonymous_args = 0
 371              		@ link register save eliminated.
 372              	.LVL39:
 373              	.L27:
 113:Core/Src/flash.c **** 	while (1)
 374              		.loc 1 113 2 view .LVU102
 114:Core/Src/flash.c **** 	{
 115:Core/Src/flash.c **** 
 116:Core/Src/flash.c **** 		*RxBuf = *(__IO uint32_t *)StartPageAddress;
 375              		.loc 1 116 3 view .LVU103
 376              		.loc 1 116 12 is_stmt 0 view .LVU104
 377 0000 50F8043B 		ldr	r3, [r0], #4
 378              		.loc 1 116 10 view .LVU105
 379 0004 41F8043B 		str	r3, [r1], #4
 117:Core/Src/flash.c **** 		StartPageAddress += 4;
 380              		.loc 1 117 3 is_stmt 1 view .LVU106
 381              	.LVL40:
 118:Core/Src/flash.c **** 		RxBuf++;
 382              		.loc 1 118 3 view .LVU107
 119:Core/Src/flash.c **** 		if (!(numberofwords--)) break;
 383              		.loc 1 119 3 view .LVU108
 384 0008 1346     		mov	r3, r2
 385              		.loc 1 119 22 is_stmt 0 view .LVU109
 386 000a 013A     		subs	r2, r2, #1
 387 000c 92B2     		uxth	r2, r2
 388              	.LVL41:
 389              		.loc 1 119 6 view .LVU110
ARM GAS  /tmp/ccuTqYFt.s 			page 10


 390 000e 002B     		cmp	r3, #0
 391 0010 F6D1     		bne	.L27
 120:Core/Src/flash.c **** 	}
 121:Core/Src/flash.c **** }
 392              		.loc 1 121 1 view .LVU111
 393 0012 7047     		bx	lr
 394              		.cfi_endproc
 395              	.LFE70:
 397              		.section	.text.Convert_To_Str,"ax",%progbits
 398              		.align	1
 399              		.global	Convert_To_Str
 400              		.syntax unified
 401              		.thumb
 402              		.thumb_func
 403              		.fpu softvfp
 405              	Convert_To_Str:
 406              	.LVL42:
 407              	.LFB71:
 122:Core/Src/flash.c **** void Convert_To_Str (uint32_t *Data, char *Buf)
 123:Core/Src/flash.c **** {
 408              		.loc 1 123 1 is_stmt 1 view -0
 409              		.cfi_startproc
 410              		@ args = 0, pretend = 0, frame = 0
 411              		@ frame_needed = 0, uses_anonymous_args = 0
 412              		.loc 1 123 1 is_stmt 0 view .LVU113
 413 0000 70B5     		push	{r4, r5, r6, lr}
 414              	.LCFI7:
 415              		.cfi_def_cfa_offset 16
 416              		.cfi_offset 4, -16
 417              		.cfi_offset 5, -12
 418              		.cfi_offset 6, -8
 419              		.cfi_offset 14, -4
 420 0002 0546     		mov	r5, r0
 421 0004 0C46     		mov	r4, r1
 124:Core/Src/flash.c **** 	int numberofbytes = ((strlen((char *)Data)/4) + ((strlen((char *)Data) % 4) != 0)) *4;
 422              		.loc 1 124 2 is_stmt 1 view .LVU114
 423              		.loc 1 124 24 is_stmt 0 view .LVU115
 424 0006 FFF7FEFF 		bl	strlen
 425              	.LVL43:
 426              		.loc 1 124 78 view .LVU116
 427 000a 10F00306 		ands	r6, r0, #3
 428 000e 18BF     		it	ne
 429 0010 0126     		movne	r6, #1
 430              		.loc 1 124 48 view .LVU117
 431 0012 06EB9006 		add	r6, r6, r0, lsr #2
 432              		.loc 1 124 85 view .LVU118
 433 0016 B600     		lsls	r6, r6, #2
 434              	.LVL44:
 125:Core/Src/flash.c **** 
 126:Core/Src/flash.c **** 	for (int i=0; i<numberofbytes; i++)
 435              		.loc 1 126 2 is_stmt 1 view .LVU119
 436              	.LBB5:
 437              		.loc 1 126 7 view .LVU120
 438              		.loc 1 126 11 is_stmt 0 view .LVU121
 439 0018 0023     		movs	r3, #0
 440              		.loc 1 126 2 view .LVU122
 441 001a 0EE0     		b	.L29
ARM GAS  /tmp/ccuTqYFt.s 			page 11


 442              	.LVL45:
 443              	.L30:
 127:Core/Src/flash.c **** 	{
 128:Core/Src/flash.c **** 		Buf[i] = Data[i/4]>>(8*(i%4));
 444              		.loc 1 128 18 discriminator 3 view .LVU123
 445 001c 9210     		asrs	r2, r2, #2
 446              		.loc 1 128 16 discriminator 3 view .LVU124
 447 001e 55F82210 		ldr	r1, [r5, r2, lsl #2]
 448              		.loc 1 128 28 discriminator 3 view .LVU125
 449 0022 5842     		rsbs	r0, r3, #0
 450 0024 03F00302 		and	r2, r3, #3
 451 0028 00F00300 		and	r0, r0, #3
 452 002c 58BF     		it	pl
 453 002e 4242     		rsbpl	r2, r0, #0
 454              		.loc 1 128 25 discriminator 3 view .LVU126
 455 0030 D200     		lsls	r2, r2, #3
 456              		.loc 1 128 21 discriminator 3 view .LVU127
 457 0032 21FA02F2 		lsr	r2, r1, r2
 458              		.loc 1 128 10 discriminator 3 view .LVU128
 459 0036 E254     		strb	r2, [r4, r3]
 126:Core/Src/flash.c **** 	{
 460              		.loc 1 126 33 is_stmt 1 discriminator 3 view .LVU129
 126:Core/Src/flash.c **** 	{
 461              		.loc 1 126 34 is_stmt 0 discriminator 3 view .LVU130
 462 0038 0133     		adds	r3, r3, #1
 463              	.LVL46:
 464              	.L29:
 126:Core/Src/flash.c **** 	{
 465              		.loc 1 126 16 is_stmt 1 discriminator 1 view .LVU131
 126:Core/Src/flash.c **** 	{
 466              		.loc 1 126 2 is_stmt 0 discriminator 1 view .LVU132
 467 003a B342     		cmp	r3, r6
 468 003c 04DA     		bge	.L33
 469              		.loc 1 128 3 is_stmt 1 discriminator 3 view .LVU133
 470              		.loc 1 128 18 is_stmt 0 discriminator 3 view .LVU134
 471 003e 1A46     		mov	r2, r3
 472 0040 002B     		cmp	r3, #0
 473 0042 EBDA     		bge	.L30
 474 0044 DA1C     		adds	r2, r3, #3
 475 0046 E9E7     		b	.L30
 476              	.L33:
 477              	.LBE5:
 129:Core/Src/flash.c **** 	}
 130:Core/Src/flash.c **** }
 478              		.loc 1 130 1 view .LVU135
 479 0048 70BD     		pop	{r4, r5, r6, pc}
 480              		.loc 1 130 1 view .LVU136
 481              		.cfi_endproc
 482              	.LFE71:
 484              		.global	__aeabi_i2d
 485              		.global	__aeabi_i2f
 486              		.global	__aeabi_fmul
 487              		.global	__aeabi_f2d
 488              		.global	__aeabi_dcmplt
 489              		.section	.text.Str_To_uint32,"ax",%progbits
 490              		.align	1
 491              		.global	Str_To_uint32
ARM GAS  /tmp/ccuTqYFt.s 			page 12


 492              		.syntax unified
 493              		.thumb
 494              		.thumb_func
 495              		.fpu softvfp
 497              	Str_To_uint32:
 498              	.LVL47:
 499              	.LFB72:
 131:Core/Src/flash.c **** 
 132:Core/Src/flash.c **** void Str_To_uint32(char *Buf, uint32_t *Holder){
 500              		.loc 1 132 48 is_stmt 1 view -0
 501              		.cfi_startproc
 502              		@ args = 0, pretend = 0, frame = 0
 503              		@ frame_needed = 0, uses_anonymous_args = 0
 504              		.loc 1 132 48 is_stmt 0 view .LVU138
 505 0000 2DE9F843 		push	{r3, r4, r5, r6, r7, r8, r9, lr}
 506              	.LCFI8:
 507              		.cfi_def_cfa_offset 32
 508              		.cfi_offset 3, -32
 509              		.cfi_offset 4, -28
 510              		.cfi_offset 5, -24
 511              		.cfi_offset 6, -20
 512              		.cfi_offset 7, -16
 513              		.cfi_offset 8, -12
 514              		.cfi_offset 9, -8
 515              		.cfi_offset 14, -4
 516 0004 8046     		mov	r8, r0
 517 0006 8946     		mov	r9, r1
 133:Core/Src/flash.c **** 	int numberofchar = strlen(Buf);
 518              		.loc 1 133 2 is_stmt 1 view .LVU139
 519              		.loc 1 133 21 is_stmt 0 view .LVU140
 520 0008 FFF7FEFF 		bl	strlen
 521              	.LVL48:
 522              		.loc 1 133 6 view .LVU141
 523 000c 0546     		mov	r5, r0
 524              	.LVL49:
 134:Core/Src/flash.c **** 	//hard assumption it fits!
 135:Core/Src/flash.c **** 
 136:Core/Src/flash.c **** 	for(int i = 0; i < ceil(numberofchar/4.0f); i++){
 525              		.loc 1 136 2 is_stmt 1 view .LVU142
 526              	.LBB6:
 527              		.loc 1 136 6 view .LVU143
 528              		.loc 1 136 10 is_stmt 0 view .LVU144
 529 000e 0024     		movs	r4, #0
 530              		.loc 1 136 2 view .LVU145
 531 0010 0FE0     		b	.L35
 532              	.LVL50:
 533              	.L39:
 534              	.LBB7:
 535              	.LBB8:
 137:Core/Src/flash.c **** 		uint32_t result = 0;
 138:Core/Src/flash.c **** 		for(int j = 3; j >= 0; j--){
 139:Core/Src/flash.c **** 			result = (result<<8) | (((i)*4 + j) >= numberofchar ? 0 : Buf[(i)*4 + j]);
 536              		.loc 1 139 60 view .LVU146
 537 0012 0021     		movs	r1, #0
 538              	.L36:
 539              		.loc 1 139 11 discriminator 4 view .LVU147
 540 0014 0B43     		orrs	r3, r3, r1
ARM GAS  /tmp/ccuTqYFt.s 			page 13


 541              	.LVL51:
 138:Core/Src/flash.c **** 			result = (result<<8) | (((i)*4 + j) >= numberofchar ? 0 : Buf[(i)*4 + j]);
 542              		.loc 1 138 26 is_stmt 1 discriminator 4 view .LVU148
 138:Core/Src/flash.c **** 			result = (result<<8) | (((i)*4 + j) >= numberofchar ? 0 : Buf[(i)*4 + j]);
 543              		.loc 1 138 27 is_stmt 0 discriminator 4 view .LVU149
 544 0016 013A     		subs	r2, r2, #1
 545              	.LVL52:
 546              	.L38:
 138:Core/Src/flash.c **** 			result = (result<<8) | (((i)*4 + j) >= numberofchar ? 0 : Buf[(i)*4 + j]);
 547              		.loc 1 138 18 is_stmt 1 discriminator 2 view .LVU150
 138:Core/Src/flash.c **** 			result = (result<<8) | (((i)*4 + j) >= numberofchar ? 0 : Buf[(i)*4 + j]);
 548              		.loc 1 138 3 is_stmt 0 discriminator 2 view .LVU151
 549 0018 002A     		cmp	r2, #0
 550 001a 07DB     		blt	.L42
 551              		.loc 1 139 4 is_stmt 1 view .LVU152
 552              		.loc 1 139 20 is_stmt 0 view .LVU153
 553 001c 1B02     		lsls	r3, r3, #8
 554              	.LVL53:
 555              		.loc 1 139 35 view .LVU154
 556 001e 02EB8401 		add	r1, r2, r4, lsl #2
 557              		.loc 1 139 60 view .LVU155
 558 0022 A942     		cmp	r1, r5
 559 0024 F5DA     		bge	.L39
 560              		.loc 1 139 65 discriminator 1 view .LVU156
 561 0026 18F80110 		ldrb	r1, [r8, r1]	@ zero_extendqisi2
 562 002a F3E7     		b	.L36
 563              	.LVL54:
 564              	.L42:
 565              		.loc 1 139 65 discriminator 1 view .LVU157
 566              	.LBE8:
 140:Core/Src/flash.c **** 		}
 141:Core/Src/flash.c **** 		Holder[i] = result;
 567              		.loc 1 141 3 is_stmt 1 discriminator 2 view .LVU158
 568              		.loc 1 141 13 is_stmt 0 discriminator 2 view .LVU159
 569 002c 49F82430 		str	r3, [r9, r4, lsl #2]
 570              	.LBE7:
 136:Core/Src/flash.c **** 		uint32_t result = 0;
 571              		.loc 1 136 46 is_stmt 1 discriminator 2 view .LVU160
 136:Core/Src/flash.c **** 		uint32_t result = 0;
 572              		.loc 1 136 47 is_stmt 0 discriminator 2 view .LVU161
 573 0030 0134     		adds	r4, r4, #1
 574              	.LVL55:
 575              	.L35:
 136:Core/Src/flash.c **** 		uint32_t result = 0;
 576              		.loc 1 136 17 is_stmt 1 discriminator 1 view .LVU162
 136:Core/Src/flash.c **** 		uint32_t result = 0;
 577              		.loc 1 136 19 is_stmt 0 discriminator 1 view .LVU163
 578 0032 2046     		mov	r0, r4
 579 0034 FFF7FEFF 		bl	__aeabi_i2d
 580              	.LVL56:
 581 0038 0646     		mov	r6, r0
 582 003a 0F46     		mov	r7, r1
 136:Core/Src/flash.c **** 		uint32_t result = 0;
 583              		.loc 1 136 38 discriminator 1 view .LVU164
 584 003c 2846     		mov	r0, r5
 585 003e FFF7FEFF 		bl	__aeabi_i2f
 586              	.LVL57:
ARM GAS  /tmp/ccuTqYFt.s 			page 14


 587 0042 4FF07A51 		mov	r1, #1048576000
 588 0046 FFF7FEFF 		bl	__aeabi_fmul
 589              	.LVL58:
 136:Core/Src/flash.c **** 		uint32_t result = 0;
 590              		.loc 1 136 21 discriminator 1 view .LVU165
 591 004a FFF7FEFF 		bl	__aeabi_f2d
 592              	.LVL59:
 593 004e FFF7FEFF 		bl	ceil
 594              	.LVL60:
 595 0052 0246     		mov	r2, r0
 596 0054 0B46     		mov	r3, r1
 136:Core/Src/flash.c **** 		uint32_t result = 0;
 597              		.loc 1 136 2 discriminator 1 view .LVU166
 598 0056 3046     		mov	r0, r6
 599 0058 3946     		mov	r1, r7
 600 005a FFF7FEFF 		bl	__aeabi_dcmplt
 601              	.LVL61:
 602 005e 10B1     		cbz	r0, .L43
 603              	.LBB10:
 604              	.LBB9:
 138:Core/Src/flash.c **** 			result = (result<<8) | (((i)*4 + j) >= numberofchar ? 0 : Buf[(i)*4 + j]);
 605              		.loc 1 138 11 view .LVU167
 606 0060 0322     		movs	r2, #3
 607              	.LBE9:
 137:Core/Src/flash.c **** 		for(int j = 3; j >= 0; j--){
 608              		.loc 1 137 12 view .LVU168
 609 0062 0023     		movs	r3, #0
 610 0064 D8E7     		b	.L38
 611              	.L43:
 612              	.LBE10:
 613              	.LBE6:
 142:Core/Src/flash.c **** 	}
 143:Core/Src/flash.c **** }
 614              		.loc 1 143 1 view .LVU169
 615 0066 BDE8F883 		pop	{r3, r4, r5, r6, r7, r8, r9, pc}
 616              		.loc 1 143 1 view .LVU170
 617              		.cfi_endproc
 618              	.LFE72:
 620              		.section	.text.Flash_Write_NUM,"ax",%progbits
 621              		.align	1
 622              		.global	Flash_Write_NUM
 623              		.syntax unified
 624              		.thumb
 625              		.thumb_func
 626              		.fpu softvfp
 628              	Flash_Write_NUM:
 629              	.LVL62:
 630              	.LFB73:
 144:Core/Src/flash.c **** 
 145:Core/Src/flash.c **** void Flash_Write_NUM (uint32_t StartSectorAddress, float Num)
 146:Core/Src/flash.c **** {
 631              		.loc 1 146 1 is_stmt 1 view -0
 632              		.cfi_startproc
 633              		@ args = 0, pretend = 0, frame = 0
 634              		@ frame_needed = 0, uses_anonymous_args = 0
 635              		.loc 1 146 1 is_stmt 0 view .LVU172
 636 0000 38B5     		push	{r3, r4, r5, lr}
ARM GAS  /tmp/ccuTqYFt.s 			page 15


 637              	.LCFI9:
 638              		.cfi_def_cfa_offset 16
 639              		.cfi_offset 3, -16
 640              		.cfi_offset 4, -12
 641              		.cfi_offset 5, -8
 642              		.cfi_offset 14, -4
 643 0002 0446     		mov	r4, r0
 147:Core/Src/flash.c **** 
 148:Core/Src/flash.c **** 	float2Bytes(bytes_temp, Num);
 644              		.loc 1 148 2 is_stmt 1 view .LVU173
 645 0004 044D     		ldr	r5, .L46
 646 0006 2846     		mov	r0, r5
 647              	.LVL63:
 648              		.loc 1 148 2 is_stmt 0 view .LVU174
 649 0008 FFF7FEFF 		bl	float2Bytes
 650              	.LVL64:
 149:Core/Src/flash.c **** 
 150:Core/Src/flash.c **** 	Flash_Write_Data (StartSectorAddress, (uint32_t *)bytes_temp, 1);
 651              		.loc 1 150 2 is_stmt 1 view .LVU175
 652 000c 0122     		movs	r2, #1
 653 000e 2946     		mov	r1, r5
 654 0010 2046     		mov	r0, r4
 655 0012 FFF7FEFF 		bl	Flash_Write_Data
 656              	.LVL65:
 151:Core/Src/flash.c **** }
 657              		.loc 1 151 1 is_stmt 0 view .LVU176
 658 0016 38BD     		pop	{r3, r4, r5, pc}
 659              	.LVL66:
 660              	.L47:
 661              		.loc 1 151 1 view .LVU177
 662              		.align	2
 663              	.L46:
 664 0018 00000000 		.word	bytes_temp
 665              		.cfi_endproc
 666              	.LFE73:
 668              		.section	.text.Flash_Read_NUM,"ax",%progbits
 669              		.align	1
 670              		.global	Flash_Read_NUM
 671              		.syntax unified
 672              		.thumb
 673              		.thumb_func
 674              		.fpu softvfp
 676              	Flash_Read_NUM:
 677              	.LVL67:
 678              	.LFB74:
 152:Core/Src/flash.c **** 
 153:Core/Src/flash.c **** 
 154:Core/Src/flash.c **** float Flash_Read_NUM (uint32_t StartSectorAddress)
 155:Core/Src/flash.c **** {
 679              		.loc 1 155 1 is_stmt 1 view -0
 680              		.cfi_startproc
 681              		@ args = 0, pretend = 0, frame = 8
 682              		@ frame_needed = 0, uses_anonymous_args = 0
 683              		.loc 1 155 1 is_stmt 0 view .LVU179
 684 0000 00B5     		push	{lr}
 685              	.LCFI10:
 686              		.cfi_def_cfa_offset 4
ARM GAS  /tmp/ccuTqYFt.s 			page 16


 687              		.cfi_offset 14, -4
 688 0002 83B0     		sub	sp, sp, #12
 689              	.LCFI11:
 690              		.cfi_def_cfa_offset 16
 156:Core/Src/flash.c **** 	uint8_t buffer[4];
 691              		.loc 1 156 2 is_stmt 1 view .LVU180
 157:Core/Src/flash.c **** 	float value;
 692              		.loc 1 157 2 view .LVU181
 158:Core/Src/flash.c **** 
 159:Core/Src/flash.c **** 	Flash_Read_Data(StartSectorAddress, (uint32_t *)buffer, 1);
 693              		.loc 1 159 2 view .LVU182
 694 0004 0122     		movs	r2, #1
 695 0006 01A9     		add	r1, sp, #4
 696 0008 FFF7FEFF 		bl	Flash_Read_Data
 697              	.LVL68:
 160:Core/Src/flash.c **** 	value = Bytes2float(buffer);
 698              		.loc 1 160 2 view .LVU183
 699              		.loc 1 160 10 is_stmt 0 view .LVU184
 700 000c 01A8     		add	r0, sp, #4
 701 000e FFF7FEFF 		bl	Bytes2float
 702              	.LVL69:
 161:Core/Src/flash.c **** 	return value;
 703              		.loc 1 161 2 is_stmt 1 view .LVU185
 162:Core/Src/flash.c **** }
 704              		.loc 1 162 1 is_stmt 0 view .LVU186
 705 0012 03B0     		add	sp, sp, #12
 706              	.LCFI12:
 707              		.cfi_def_cfa_offset 4
 708              		@ sp needed
 709 0014 5DF804FB 		ldr	pc, [sp], #4
 710              		.cfi_endproc
 711              	.LFE74:
 713              		.comm	bytes_temp,4,4
 714              		.section	.bss.EraseInitStruct.8432,"aw",%nobits
 715              		.align	2
 716              		.set	.LANCHOR0,. + 0
 719              	EraseInitStruct.8432:
 720 0000 00000000 		.space	16
 720      00000000 
 720      00000000 
 720      00000000 
 721              		.text
 722              	.Letext0:
 723              		.file 2 "/usr/lib/gcc/arm-none-eabi/9.2.1/include/stdint.h"
 724              		.file 3 "Drivers/CMSIS/Include/core_cm3.h"
 725              		.file 4 "Drivers/CMSIS/Device/ST/STM32F1xx/Include/system_stm32f1xx.h"
 726              		.file 5 "/usr/lib/gcc/arm-none-eabi/9.2.1/include/stddef.h"
 727              		.file 6 "/usr/include/newlib/sys/_types.h"
 728              		.file 7 "/usr/include/newlib/sys/reent.h"
 729              		.file 8 "/usr/include/newlib/sys/lock.h"
 730              		.file 9 "Drivers/STM32F1xx_HAL_Driver/Inc/stm32f1xx_hal_flash_ex.h"
 731              		.file 10 "Drivers/STM32F1xx_HAL_Driver/Inc/stm32f1xx_hal_def.h"
 732              		.file 11 "Drivers/STM32F1xx_HAL_Driver/Inc/stm32f1xx_hal.h"
 733              		.file 12 "/usr/include/newlib/math.h"
 734              		.file 13 "/usr/include/newlib/string.h"
 735              		.file 14 "Drivers/STM32F1xx_HAL_Driver/Inc/stm32f1xx_hal_flash.h"
ARM GAS  /tmp/ccuTqYFt.s 			page 17

