ARM GAS  /tmp/cc9SP6by.s 			page 1


   1              		.cpu cortex-m3
   2              		.eabi_attribute 20, 1
   3              		.eabi_attribute 21, 1
   4              		.eabi_attribute 23, 3
   5              		.eabi_attribute 24, 1
   6              		.eabi_attribute 25, 1
   7              		.eabi_attribute 26, 1
   8              		.eabi_attribute 30, 1
   9              		.eabi_attribute 34, 1
  10              		.eabi_attribute 18, 4
  11              		.file	"led_page.c"
  12              		.text
  13              	.Ltext0:
  14              		.cfi_sections	.debug_frame
  15              		.section	.text.led_init,"ax",%progbits
  16              		.align	1
  17              		.global	led_init
  18              		.arch armv7-m
  19              		.syntax unified
  20              		.thumb
  21              		.thumb_func
  22              		.fpu softvfp
  24              	led_init:
  25              	.LFB66:
  26              		.file 1 "Core/Src/oled/led_page.c"
   1:Core/Src/oled/led_page.c **** /*
   2:Core/Src/oled/led_page.c ****  * led_page.c
   3:Core/Src/oled/led_page.c ****  *
   4:Core/Src/oled/led_page.c ****  *  Created on: Oct 29, 2021
   5:Core/Src/oled/led_page.c ****  *      Author: Steven
   6:Core/Src/oled/led_page.c ****  */
   7:Core/Src/oled/led_page.c **** #include "../../Inc/oled/led_page.h"
   8:Core/Src/oled/led_page.c **** #include "math.h"
   9:Core/Src/oled/led_page.c **** 
  10:Core/Src/oled/led_page.c **** char *oled_color[20] = {
  11:Core/Src/oled/led_page.c **** 		"bright",
  12:Core/Src/oled/led_page.c **** 		"green",
  13:Core/Src/oled/led_page.c **** 		"red",
  14:Core/Src/oled/led_page.c **** 		"blue"
  15:Core/Src/oled/led_page.c **** };
  16:Core/Src/oled/led_page.c **** 
  17:Core/Src/oled/led_page.c **** char *led_aura[20] = {
  18:Core/Src/oled/led_page.c **** 		"WS2812DISABLE",
  19:Core/Src/oled/led_page.c **** 		"STATICMODE",
  20:Core/Src/oled/led_page.c **** 		"BREATHMODE",
  21:Core/Src/oled/led_page.c **** 		"LOOPMODE"
  22:Core/Src/oled/led_page.c **** };
  23:Core/Src/oled/led_page.c **** 
  24:Core/Src/oled/led_page.c **** PAGE led = {
  25:Core/Src/oled/led_page.c **** 		.title = "LED",
  26:Core/Src/oled/led_page.c **** 		.update_page = led_update,
  27:Core/Src/oled/led_page.c **** 		.on_click= led_onclick,
  28:Core/Src/oled/led_page.c **** 		.init = led_init};
  29:Core/Src/oled/led_page.c **** 
  30:Core/Src/oled/led_page.c **** int current_led = 0;
  31:Core/Src/oled/led_page.c **** int current_selection = 0;
  32:Core/Src/oled/led_page.c **** uint8_t led_init_value = 0;
ARM GAS  /tmp/cc9SP6by.s 			page 2


  33:Core/Src/oled/led_page.c **** 
  34:Core/Src/oled/led_page.c **** void led_init(){
  27              		.loc 1 34 16 view -0
  28              		.cfi_startproc
  29              		@ args = 0, pretend = 0, frame = 72
  30              		@ frame_needed = 0, uses_anonymous_args = 0
  31 0000 10B5     		push	{r4, lr}
  32              	.LCFI0:
  33              		.cfi_def_cfa_offset 8
  34              		.cfi_offset 4, -8
  35              		.cfi_offset 14, -4
  36 0002 92B0     		sub	sp, sp, #72
  37              	.LCFI1:
  38              		.cfi_def_cfa_offset 80
  35:Core/Src/oled/led_page.c **** 	uint32_t data[MAX_LED];
  39              		.loc 1 35 2 view .LVU1
  36:Core/Src/oled/led_page.c **** 	//get the data value
  37:Core/Src/oled/led_page.c **** 	Flash_Read_Data (LED_START_ADDR, &data, MAX_LED);
  40              		.loc 1 37 2 view .LVU2
  41 0004 1022     		movs	r2, #16
  42 0006 02A9     		add	r1, sp, #8
  43 0008 1748     		ldr	r0, .L10
  44 000a FFF7FEFF 		bl	Flash_Read_Data
  45              	.LVL0:
  38:Core/Src/oled/led_page.c **** 
  39:Core/Src/oled/led_page.c **** 	for(int i = 0; i < MAX_LED; i++){
  46              		.loc 1 39 2 view .LVU3
  47              	.LBB2:
  48              		.loc 1 39 6 view .LVU4
  49              		.loc 1 39 10 is_stmt 0 view .LVU5
  50 000e 0020     		movs	r0, #0
  51              		.loc 1 39 2 view .LVU6
  52 0010 0CE0     		b	.L2
  53              	.LVL1:
  54              	.L5:
  55              	.LBB3:
  40:Core/Src/oled/led_page.c **** 		if(data[i] == 0xFFFFFFFF) continue;
  41:Core/Src/oled/led_page.c **** 		for(int j = 0; j < SELECTION; j++){
  42:Core/Src/oled/led_page.c **** 			ws2812.LED_Data[i][j] = (uint8_t)(data[i] >> (8 * j));
  56              		.loc 1 42 4 is_stmt 1 discriminator 3 view .LVU7
  57              		.loc 1 42 52 is_stmt 0 discriminator 3 view .LVU8
  58 0012 D100     		lsls	r1, r2, #3
  59              		.loc 1 42 46 discriminator 3 view .LVU9
  60 0014 24FA01F1 		lsr	r1, r4, r1
  61              		.loc 1 42 26 discriminator 3 view .LVU10
  62 0018 144B     		ldr	r3, .L10+4
  63 001a 03EB8003 		add	r3, r3, r0, lsl #2
  64 001e 1344     		add	r3, r3, r2
  65 0020 83F8D416 		strb	r1, [r3, #1748]
  41:Core/Src/oled/led_page.c **** 			ws2812.LED_Data[i][j] = (uint8_t)(data[i] >> (8 * j));
  66              		.loc 1 41 33 is_stmt 1 discriminator 3 view .LVU11
  41:Core/Src/oled/led_page.c **** 			ws2812.LED_Data[i][j] = (uint8_t)(data[i] >> (8 * j));
  67              		.loc 1 41 34 is_stmt 0 discriminator 3 view .LVU12
  68 0024 0132     		adds	r2, r2, #1
  69              	.LVL2:
  70              	.L4:
  41:Core/Src/oled/led_page.c **** 			ws2812.LED_Data[i][j] = (uint8_t)(data[i] >> (8 * j));
ARM GAS  /tmp/cc9SP6by.s 			page 3


  71              		.loc 1 41 18 is_stmt 1 discriminator 1 view .LVU13
  41:Core/Src/oled/led_page.c **** 			ws2812.LED_Data[i][j] = (uint8_t)(data[i] >> (8 * j));
  72              		.loc 1 41 3 is_stmt 0 discriminator 1 view .LVU14
  73 0026 032A     		cmp	r2, #3
  74 0028 F3DD     		ble	.L5
  75              	.LVL3:
  76              	.L3:
  41:Core/Src/oled/led_page.c **** 			ws2812.LED_Data[i][j] = (uint8_t)(data[i] >> (8 * j));
  77              		.loc 1 41 3 discriminator 1 view .LVU15
  78              	.LBE3:
  39:Core/Src/oled/led_page.c **** 		if(data[i] == 0xFFFFFFFF) continue;
  79              		.loc 1 39 30 is_stmt 1 discriminator 2 view .LVU16
  39:Core/Src/oled/led_page.c **** 		if(data[i] == 0xFFFFFFFF) continue;
  80              		.loc 1 39 31 is_stmt 0 discriminator 2 view .LVU17
  81 002a 0130     		adds	r0, r0, #1
  82              	.LVL4:
  83              	.L2:
  39:Core/Src/oled/led_page.c **** 		if(data[i] == 0xFFFFFFFF) continue;
  84              		.loc 1 39 17 is_stmt 1 discriminator 1 view .LVU18
  39:Core/Src/oled/led_page.c **** 		if(data[i] == 0xFFFFFFFF) continue;
  85              		.loc 1 39 2 is_stmt 0 discriminator 1 view .LVU19
  86 002c 0F28     		cmp	r0, #15
  87 002e 09DC     		bgt	.L9
  40:Core/Src/oled/led_page.c **** 		if(data[i] == 0xFFFFFFFF) continue;
  88              		.loc 1 40 3 is_stmt 1 view .LVU20
  40:Core/Src/oled/led_page.c **** 		if(data[i] == 0xFFFFFFFF) continue;
  89              		.loc 1 40 10 is_stmt 0 view .LVU21
  90 0030 12AB     		add	r3, sp, #72
  91 0032 03EB8003 		add	r3, r3, r0, lsl #2
  92 0036 53F8404C 		ldr	r4, [r3, #-64]
  40:Core/Src/oled/led_page.c **** 		if(data[i] == 0xFFFFFFFF) continue;
  93              		.loc 1 40 5 view .LVU22
  94 003a B4F1FF3F 		cmp	r4, #-1
  95 003e F4D0     		beq	.L3
  96              	.LBB4:
  41:Core/Src/oled/led_page.c **** 			ws2812.LED_Data[i][j] = (uint8_t)(data[i] >> (8 * j));
  97              		.loc 1 41 11 view .LVU23
  98 0040 0022     		movs	r2, #0
  99 0042 F0E7     		b	.L4
 100              	.L9:
 101              	.LBE4:
 102              	.LBE2:
  43:Core/Src/oled/led_page.c **** 		}
  44:Core/Src/oled/led_page.c **** 	}
  45:Core/Src/oled/led_page.c **** 
  46:Core/Src/oled/led_page.c **** 	uint32_t mode = 0;
 103              		.loc 1 46 2 is_stmt 1 view .LVU24
 104              		.loc 1 46 11 is_stmt 0 view .LVU25
 105 0044 0023     		movs	r3, #0
 106 0046 0193     		str	r3, [sp, #4]
  47:Core/Src/oled/led_page.c **** 	Flash_Read_Data(LED_MODE_ADDR, &mode, 1);
 107              		.loc 1 47 2 is_stmt 1 view .LVU26
 108 0048 0122     		movs	r2, #1
 109 004a 01A9     		add	r1, sp, #4
 110 004c 0848     		ldr	r0, .L10+8
 111              	.LVL5:
 112              		.loc 1 47 2 is_stmt 0 view .LVU27
ARM GAS  /tmp/cc9SP6by.s 			page 4


 113 004e FFF7FEFF 		bl	Flash_Read_Data
 114              	.LVL6:
  48:Core/Src/oled/led_page.c **** 	if(data[0] != 0xFFFFFFFF){
 115              		.loc 1 48 2 is_stmt 1 view .LVU28
 116              		.loc 1 48 9 is_stmt 0 view .LVU29
 117 0052 029B     		ldr	r3, [sp, #8]
 118              		.loc 1 48 4 view .LVU30
 119 0054 B3F1FF3F 		cmp	r3, #-1
 120 0058 03D0     		beq	.L1
  49:Core/Src/oled/led_page.c **** 		rgb_mode = mode >> 24; //check this
 121              		.loc 1 49 3 is_stmt 1 view .LVU31
 122              		.loc 1 49 19 is_stmt 0 view .LVU32
 123 005a 9DF80720 		ldrb	r2, [sp, #7]	@ zero_extendqisi2
 124              		.loc 1 49 12 view .LVU33
 125 005e 054B     		ldr	r3, .L10+12
 126 0060 1A70     		strb	r2, [r3]
 127              	.L1:
  50:Core/Src/oled/led_page.c **** 	}
  51:Core/Src/oled/led_page.c **** 
  52:Core/Src/oled/led_page.c **** }
 128              		.loc 1 52 1 view .LVU34
 129 0062 12B0     		add	sp, sp, #72
 130              	.LCFI2:
 131              		.cfi_def_cfa_offset 8
 132              		@ sp needed
 133 0064 10BD     		pop	{r4, pc}
 134              	.L11:
 135 0066 00BF     		.align	2
 136              	.L10:
 137 0068 00D80708 		.word	134731776
 138 006c 00000000 		.word	ws2812
 139 0070 00E80708 		.word	134735872
 140 0074 00000000 		.word	rgb_mode
 141              		.cfi_endproc
 142              	.LFE66:
 144              		.section	.rodata.led_update.str1.4,"aMS",%progbits,1
 145              		.align	2
 146              	.LC0:
 147 0000 25733A25 		.ascii	"%s:%u \000"
 147      752000
 148 0007 00       		.align	2
 149              	.LC1:
 150 0008 25733A25 		.ascii	"%s:%u <-- \000"
 150      75203C2D 
 150      2D2000
 151 0013 00       		.align	2
 152              	.LC2:
 153 0014 4C454420 		.ascii	"LED : %d\000"
 153      3A202564 
 153      00
 154              		.section	.text.led_update,"ax",%progbits
 155              		.align	1
 156              		.global	led_update
 157              		.syntax unified
 158              		.thumb
 159              		.thumb_func
 160              		.fpu softvfp
ARM GAS  /tmp/cc9SP6by.s 			page 5


 162              	led_update:
 163              	.LFB68:
  53:Core/Src/oled/led_page.c **** 
  54:Core/Src/oled/led_page.c **** void led_flash(){
  55:Core/Src/oled/led_page.c **** 	uint32_t temp[MAX_LED];
  56:Core/Src/oled/led_page.c **** 	for(int i = 0; i < MAX_LED; i++){
  57:Core/Src/oled/led_page.c **** 		for(int j = 3; j >= 0; j--){
  58:Core/Src/oled/led_page.c **** 			temp[i] = (temp[i] << 8) | ws2812.LED_Data[i][j];
  59:Core/Src/oled/led_page.c **** 		}
  60:Core/Src/oled/led_page.c **** 		Flash_Write_Data(LED_START_ADDR, &temp, MAX_LED);
  61:Core/Src/oled/led_page.c **** 	}
  62:Core/Src/oled/led_page.c **** 
  63:Core/Src/oled/led_page.c **** 	uint32_t mode = rgb_mode;
  64:Core/Src/oled/led_page.c **** 	Flash_Write_Data(LED_MODE_ADDR, &mode, 1);
  65:Core/Src/oled/led_page.c **** }
  66:Core/Src/oled/led_page.c **** 
  67:Core/Src/oled/led_page.c **** void led_update(){
 164              		.loc 1 67 18 is_stmt 1 view -0
 165              		.cfi_startproc
 166              		@ args = 0, pretend = 0, frame = 32
 167              		@ frame_needed = 0, uses_anonymous_args = 0
 168 0000 30B5     		push	{r4, r5, lr}
 169              	.LCFI3:
 170              		.cfi_def_cfa_offset 12
 171              		.cfi_offset 4, -12
 172              		.cfi_offset 5, -8
 173              		.cfi_offset 14, -4
 174 0002 8BB0     		sub	sp, sp, #44
 175              	.LCFI4:
 176              		.cfi_def_cfa_offset 56
  68:Core/Src/oled/led_page.c **** 	if(!led_init_value){
 177              		.loc 1 68 2 view .LVU36
 178              		.loc 1 68 5 is_stmt 0 view .LVU37
 179 0004 294B     		ldr	r3, .L22
 180 0006 1B78     		ldrb	r3, [r3]	@ zero_extendqisi2
 181              		.loc 1 68 4 view .LVU38
 182 0008 EBB1     		cbz	r3, .L19
 183              	.L13:
  69:Core/Src/oled/led_page.c **** 		led_init_value = 1;
  70:Core/Src/oled/led_page.c **** 		led_init();
  71:Core/Src/oled/led_page.c **** 	};
 184              		.loc 1 71 3 is_stmt 1 view .LVU39
  72:Core/Src/oled/led_page.c **** 	char temp[30] = " ";
 185              		.loc 1 72 2 view .LVU40
 186              		.loc 1 72 7 is_stmt 0 view .LVU41
 187 000a 2023     		movs	r3, #32
 188 000c 0293     		str	r3, [sp, #8]
 189 000e 0024     		movs	r4, #0
 190 0010 0394     		str	r4, [sp, #12]
 191 0012 0494     		str	r4, [sp, #16]
 192 0014 0594     		str	r4, [sp, #20]
 193 0016 0694     		str	r4, [sp, #24]
 194 0018 0794     		str	r4, [sp, #28]
 195 001a 0894     		str	r4, [sp, #32]
 196 001c ADF82440 		strh	r4, [sp, #36]	@ movhi
  73:Core/Src/oled/led_page.c **** 
  74:Core/Src/oled/led_page.c **** 	snprintf(temp, 30, "LED : %d", current_led + 1);
ARM GAS  /tmp/cc9SP6by.s 			page 6


 197              		.loc 1 74 2 is_stmt 1 view .LVU42
 198 0020 234B     		ldr	r3, .L22+4
 199 0022 1B68     		ldr	r3, [r3]
 200 0024 0133     		adds	r3, r3, #1
 201 0026 234A     		ldr	r2, .L22+8
 202 0028 1E21     		movs	r1, #30
 203 002a 02A8     		add	r0, sp, #8
 204 002c FFF7FEFF 		bl	snprintf
 205              	.LVL7:
  75:Core/Src/oled/led_page.c **** 	ssd1306_SetCursor(80, 20);
 206              		.loc 1 75 2 view .LVU43
 207 0030 1421     		movs	r1, #20
 208 0032 5020     		movs	r0, #80
 209 0034 FFF7FEFF 		bl	ssd1306_SetCursor
 210              	.LVL8:
  76:Core/Src/oled/led_page.c **** 	ssd1306_WriteString(temp, Font_6x8, White);
 211              		.loc 1 76 2 view .LVU44
 212 0038 1F4A     		ldr	r2, .L22+12
 213 003a 0123     		movs	r3, #1
 214 003c 06CA     		ldm	r2, {r1, r2}
 215 003e 02A8     		add	r0, sp, #8
 216 0040 FFF7FEFF 		bl	ssd1306_WriteString
 217              	.LVL9:
  77:Core/Src/oled/led_page.c **** 
  78:Core/Src/oled/led_page.c **** 	for(int i = 0; i < 4; i++){
 218              		.loc 1 78 2 view .LVU45
 219              	.LBB5:
 220              		.loc 1 78 6 view .LVU46
 221              		.loc 1 78 2 is_stmt 0 view .LVU47
 222 0044 26E0     		b	.L14
 223              	.LVL10:
 224              	.L19:
 225              		.loc 1 78 2 view .LVU48
 226              	.LBE5:
  69:Core/Src/oled/led_page.c **** 		led_init();
 227              		.loc 1 69 3 is_stmt 1 view .LVU49
  69:Core/Src/oled/led_page.c **** 		led_init();
 228              		.loc 1 69 18 is_stmt 0 view .LVU50
 229 0046 194B     		ldr	r3, .L22
 230 0048 0122     		movs	r2, #1
 231 004a 1A70     		strb	r2, [r3]
  70:Core/Src/oled/led_page.c **** 	};
 232              		.loc 1 70 3 is_stmt 1 view .LVU51
 233 004c FFF7FEFF 		bl	led_init
 234              	.LVL11:
 235 0050 DBE7     		b	.L13
 236              	.LVL12:
 237              	.L21:
 238              	.LBB6:
  79:Core/Src/oled/led_page.c **** 		snprintf(temp,30,
 239              		.loc 1 79 3 is_stmt 0 view .LVU52
 240 0052 1A4A     		ldr	r2, .L22+16
 241              	.L15:
  80:Core/Src/oled/led_page.c **** 				(i + 1) == current_selection ? "%s:%u <-- " :"%s:%u ",
  81:Core/Src/oled/led_page.c **** 				oled_color[i], ws2812.LED_Data[current_led][i]);
 242              		.loc 1 81 48 discriminator 4 view .LVU53
 243 0054 164B     		ldr	r3, .L22+4
ARM GAS  /tmp/cc9SP6by.s 			page 7


 244 0056 1968     		ldr	r1, [r3]
 245 0058 194B     		ldr	r3, .L22+20
 246 005a 03EB8103 		add	r3, r3, r1, lsl #2
 247 005e 2344     		add	r3, r3, r4
 248 0060 93F8D436 		ldrb	r3, [r3, #1748]	@ zero_extendqisi2
  79:Core/Src/oled/led_page.c **** 		snprintf(temp,30,
 249              		.loc 1 79 3 discriminator 4 view .LVU54
 250 0064 0093     		str	r3, [sp]
 251 0066 174B     		ldr	r3, .L22+24
 252 0068 53F82430 		ldr	r3, [r3, r4, lsl #2]
 253 006c 1E21     		movs	r1, #30
 254 006e 02A8     		add	r0, sp, #8
 255 0070 FFF7FEFF 		bl	snprintf
 256              	.LVL13:
  82:Core/Src/oled/led_page.c **** 		ssd1306_SetCursor(0, 20 + 10* (i));
 257              		.loc 1 82 3 is_stmt 1 discriminator 4 view .LVU55
 258 0074 04EB8404 		add	r4, r4, r4, lsl #2
 259              	.LVL14:
 260              		.loc 1 82 3 is_stmt 0 discriminator 4 view .LVU56
 261 0078 6100     		lsls	r1, r4, #1
 262 007a 1431     		adds	r1, r1, #20
 263 007c 01F0FE01 		and	r1, r1, #254
 264 0080 0020     		movs	r0, #0
 265 0082 FFF7FEFF 		bl	ssd1306_SetCursor
 266              	.LVL15:
  83:Core/Src/oled/led_page.c **** 		ssd1306_WriteString(temp, Font_6x8, White);
 267              		.loc 1 83 3 is_stmt 1 discriminator 4 view .LVU57
 268 0086 0C4A     		ldr	r2, .L22+12
 269 0088 0123     		movs	r3, #1
 270 008a 06CA     		ldm	r2, {r1, r2}
 271 008c 02A8     		add	r0, sp, #8
 272 008e FFF7FEFF 		bl	ssd1306_WriteString
 273              	.LVL16:
  78:Core/Src/oled/led_page.c **** 		snprintf(temp,30,
 274              		.loc 1 78 24 discriminator 4 view .LVU58
  78:Core/Src/oled/led_page.c **** 		snprintf(temp,30,
 275              		.loc 1 78 25 is_stmt 0 discriminator 4 view .LVU59
 276 0092 2C46     		mov	r4, r5
 277              	.LVL17:
 278              	.L14:
  78:Core/Src/oled/led_page.c **** 		snprintf(temp,30,
 279              		.loc 1 78 17 is_stmt 1 discriminator 2 view .LVU60
  78:Core/Src/oled/led_page.c **** 		snprintf(temp,30,
 280              		.loc 1 78 2 is_stmt 0 discriminator 2 view .LVU61
 281 0094 032C     		cmp	r4, #3
 282 0096 06DC     		bgt	.L20
  79:Core/Src/oled/led_page.c **** 				(i + 1) == current_selection ? "%s:%u <-- " :"%s:%u ",
 283              		.loc 1 79 3 is_stmt 1 view .LVU62
  80:Core/Src/oled/led_page.c **** 				oled_color[i], ws2812.LED_Data[current_led][i]);
 284              		.loc 1 80 8 is_stmt 0 view .LVU63
 285 0098 651C     		adds	r5, r4, #1
  80:Core/Src/oled/led_page.c **** 				oled_color[i], ws2812.LED_Data[current_led][i]);
 286              		.loc 1 80 13 view .LVU64
 287 009a 0B4B     		ldr	r3, .L22+28
 288 009c 1B68     		ldr	r3, [r3]
  79:Core/Src/oled/led_page.c **** 				(i + 1) == current_selection ? "%s:%u <-- " :"%s:%u ",
 289              		.loc 1 79 3 view .LVU65
ARM GAS  /tmp/cc9SP6by.s 			page 8


 290 009e 9D42     		cmp	r5, r3
 291 00a0 D7D0     		beq	.L21
 292 00a2 0A4A     		ldr	r2, .L22+32
 293 00a4 D6E7     		b	.L15
 294              	.L20:
 295              	.LBE6:
  84:Core/Src/oled/led_page.c **** 	}
  85:Core/Src/oled/led_page.c **** //	else{
  86:Core/Src/oled/led_page.c **** //		snprintf(temp, 30, "Mode : %s", led_aura[rgb_mode]);
  87:Core/Src/oled/led_page.c **** //		ssd1306_SetCursor(80, 20);
  88:Core/Src/oled/led_page.c **** //		ssd1306_WriteString(temp, Font_6x8, White);
  89:Core/Src/oled/led_page.c **** //
  90:Core/Src/oled/led_page.c **** //		for(int i = 0; i < 4; i++){
  91:Core/Src/oled/led_page.c **** //			snprintf(temp,30,
  92:Core/Src/oled/led_page.c **** //					(i + 1) == current_selection ? "%s <-- " :"%s ",
  93:Core/Src/oled/led_page.c **** //					led_aura);
  94:Core/Src/oled/led_page.c **** //			ssd1306_SetCursor(0, 20 + 10* (i));
  95:Core/Src/oled/led_page.c **** //			ssd1306_WriteString(temp, Font_6x8, White);
  96:Core/Src/oled/led_page.c **** //		}
  97:Core/Src/oled/led_page.c **** //	}
  98:Core/Src/oled/led_page.c **** }
 296              		.loc 1 98 1 view .LVU66
 297 00a6 0BB0     		add	sp, sp, #44
 298              	.LCFI5:
 299              		.cfi_def_cfa_offset 12
 300              		@ sp needed
 301 00a8 30BD     		pop	{r4, r5, pc}
 302              	.LVL18:
 303              	.L23:
 304              		.loc 1 98 1 view .LVU67
 305 00aa 00BF     		.align	2
 306              	.L22:
 307 00ac 00000000 		.word	.LANCHOR0
 308 00b0 00000000 		.word	.LANCHOR1
 309 00b4 14000000 		.word	.LC2
 310 00b8 00000000 		.word	Font_6x8
 311 00bc 08000000 		.word	.LC1
 312 00c0 00000000 		.word	ws2812
 313 00c4 00000000 		.word	.LANCHOR3
 314 00c8 00000000 		.word	.LANCHOR2
 315 00cc 00000000 		.word	.LC0
 316              		.cfi_endproc
 317              	.LFE68:
 319              		.section	.text.led_flash,"ax",%progbits
 320              		.align	1
 321              		.global	led_flash
 322              		.syntax unified
 323              		.thumb
 324              		.thumb_func
 325              		.fpu softvfp
 327              	led_flash:
 328              	.LFB67:
  54:Core/Src/oled/led_page.c **** 	uint32_t temp[MAX_LED];
 329              		.loc 1 54 17 is_stmt 1 view -0
 330              		.cfi_startproc
 331              		@ args = 0, pretend = 0, frame = 72
 332              		@ frame_needed = 0, uses_anonymous_args = 0
ARM GAS  /tmp/cc9SP6by.s 			page 9


 333 0000 10B5     		push	{r4, lr}
 334              	.LCFI6:
 335              		.cfi_def_cfa_offset 8
 336              		.cfi_offset 4, -8
 337              		.cfi_offset 14, -4
 338 0002 92B0     		sub	sp, sp, #72
 339              	.LCFI7:
 340              		.cfi_def_cfa_offset 80
  55:Core/Src/oled/led_page.c **** 	for(int i = 0; i < MAX_LED; i++){
 341              		.loc 1 55 2 view .LVU69
  56:Core/Src/oled/led_page.c **** 		for(int j = 3; j >= 0; j--){
 342              		.loc 1 56 2 view .LVU70
 343              	.LBB7:
  56:Core/Src/oled/led_page.c **** 		for(int j = 3; j >= 0; j--){
 344              		.loc 1 56 6 view .LVU71
 345              	.LVL19:
  56:Core/Src/oled/led_page.c **** 		for(int j = 3; j >= 0; j--){
 346              		.loc 1 56 10 is_stmt 0 view .LVU72
 347 0004 0024     		movs	r4, #0
  56:Core/Src/oled/led_page.c **** 		for(int j = 3; j >= 0; j--){
 348              		.loc 1 56 2 view .LVU73
 349 0006 17E0     		b	.L25
 350              	.LVL20:
 351              	.L26:
 352              	.LBB8:
  58:Core/Src/oled/led_page.c **** 		}
 353              		.loc 1 58 4 is_stmt 1 discriminator 3 view .LVU74
  58:Core/Src/oled/led_page.c **** 		}
 354              		.loc 1 58 19 is_stmt 0 discriminator 3 view .LVU75
 355 0008 12AB     		add	r3, sp, #72
 356 000a 03EB8401 		add	r1, r3, r4, lsl #2
 357 000e 51F8400C 		ldr	r0, [r1, #-64]
  58:Core/Src/oled/led_page.c **** 		}
 358              		.loc 1 58 49 discriminator 3 view .LVU76
 359 0012 104B     		ldr	r3, .L31
 360 0014 03EB8403 		add	r3, r3, r4, lsl #2
 361 0018 1344     		add	r3, r3, r2
 362 001a 93F8D436 		ldrb	r3, [r3, #1748]	@ zero_extendqisi2
  58:Core/Src/oled/led_page.c **** 		}
 363              		.loc 1 58 29 discriminator 3 view .LVU77
 364 001e 43EA0023 		orr	r3, r3, r0, lsl #8
  58:Core/Src/oled/led_page.c **** 		}
 365              		.loc 1 58 12 discriminator 3 view .LVU78
 366 0022 41F8403C 		str	r3, [r1, #-64]
  57:Core/Src/oled/led_page.c **** 			temp[i] = (temp[i] << 8) | ws2812.LED_Data[i][j];
 367              		.loc 1 57 26 is_stmt 1 discriminator 3 view .LVU79
  57:Core/Src/oled/led_page.c **** 			temp[i] = (temp[i] << 8) | ws2812.LED_Data[i][j];
 368              		.loc 1 57 27 is_stmt 0 discriminator 3 view .LVU80
 369 0026 013A     		subs	r2, r2, #1
 370              	.LVL21:
 371              	.L27:
  57:Core/Src/oled/led_page.c **** 			temp[i] = (temp[i] << 8) | ws2812.LED_Data[i][j];
 372              		.loc 1 57 18 is_stmt 1 discriminator 1 view .LVU81
  57:Core/Src/oled/led_page.c **** 			temp[i] = (temp[i] << 8) | ws2812.LED_Data[i][j];
 373              		.loc 1 57 3 is_stmt 0 discriminator 1 view .LVU82
 374 0028 002A     		cmp	r2, #0
 375 002a EDDA     		bge	.L26
ARM GAS  /tmp/cc9SP6by.s 			page 10


 376              	.LBE8:
  60:Core/Src/oled/led_page.c **** 	}
 377              		.loc 1 60 3 is_stmt 1 discriminator 2 view .LVU83
 378 002c 1022     		movs	r2, #16
 379              	.LVL22:
  60:Core/Src/oled/led_page.c **** 	}
 380              		.loc 1 60 3 is_stmt 0 discriminator 2 view .LVU84
 381 002e 02A9     		add	r1, sp, #8
 382 0030 0948     		ldr	r0, .L31+4
 383 0032 FFF7FEFF 		bl	Flash_Write_Data
 384              	.LVL23:
  56:Core/Src/oled/led_page.c **** 		for(int j = 3; j >= 0; j--){
 385              		.loc 1 56 30 is_stmt 1 discriminator 2 view .LVU85
  56:Core/Src/oled/led_page.c **** 		for(int j = 3; j >= 0; j--){
 386              		.loc 1 56 31 is_stmt 0 discriminator 2 view .LVU86
 387 0036 0134     		adds	r4, r4, #1
 388              	.LVL24:
 389              	.L25:
  56:Core/Src/oled/led_page.c **** 		for(int j = 3; j >= 0; j--){
 390              		.loc 1 56 17 is_stmt 1 discriminator 1 view .LVU87
  56:Core/Src/oled/led_page.c **** 		for(int j = 3; j >= 0; j--){
 391              		.loc 1 56 2 is_stmt 0 discriminator 1 view .LVU88
 392 0038 0F2C     		cmp	r4, #15
 393 003a 01DC     		bgt	.L30
 394              	.LBB9:
  57:Core/Src/oled/led_page.c **** 			temp[i] = (temp[i] << 8) | ws2812.LED_Data[i][j];
 395              		.loc 1 57 11 view .LVU89
 396 003c 0322     		movs	r2, #3
 397 003e F3E7     		b	.L27
 398              	.L30:
 399              	.LBE9:
 400              	.LBE7:
  63:Core/Src/oled/led_page.c **** 	Flash_Write_Data(LED_MODE_ADDR, &mode, 1);
 401              		.loc 1 63 2 is_stmt 1 view .LVU90
  63:Core/Src/oled/led_page.c **** 	Flash_Write_Data(LED_MODE_ADDR, &mode, 1);
 402              		.loc 1 63 11 is_stmt 0 view .LVU91
 403 0040 064B     		ldr	r3, .L31+8
 404 0042 1B78     		ldrb	r3, [r3]	@ zero_extendqisi2
 405 0044 0193     		str	r3, [sp, #4]
  64:Core/Src/oled/led_page.c **** }
 406              		.loc 1 64 2 is_stmt 1 view .LVU92
 407 0046 0122     		movs	r2, #1
 408 0048 01A9     		add	r1, sp, #4
 409 004a 0548     		ldr	r0, .L31+12
 410 004c FFF7FEFF 		bl	Flash_Write_Data
 411              	.LVL25:
  65:Core/Src/oled/led_page.c **** 
 412              		.loc 1 65 1 is_stmt 0 view .LVU93
 413 0050 12B0     		add	sp, sp, #72
 414              	.LCFI8:
 415              		.cfi_def_cfa_offset 8
 416              		@ sp needed
 417 0052 10BD     		pop	{r4, pc}
 418              	.LVL26:
 419              	.L32:
  65:Core/Src/oled/led_page.c **** 
 420              		.loc 1 65 1 view .LVU94
ARM GAS  /tmp/cc9SP6by.s 			page 11


 421              		.align	2
 422              	.L31:
 423 0054 00000000 		.word	ws2812
 424 0058 00D80708 		.word	134731776
 425 005c 00000000 		.word	rgb_mode
 426 0060 00E80708 		.word	134735872
 427              		.cfi_endproc
 428              	.LFE67:
 430              		.section	.text.led_onclick,"ax",%progbits
 431              		.align	1
 432              		.global	led_onclick
 433              		.syntax unified
 434              		.thumb
 435              		.thumb_func
 436              		.fpu softvfp
 438              	led_onclick:
 439              	.LVL27:
 440              	.LFB69:
  99:Core/Src/oled/led_page.c **** 
 100:Core/Src/oled/led_page.c **** void led_onclick(char *combination, int charNum){
 441              		.loc 1 100 49 is_stmt 1 view -0
 442              		.cfi_startproc
 443              		@ args = 0, pretend = 0, frame = 0
 444              		@ frame_needed = 0, uses_anonymous_args = 0
 101:Core/Src/oled/led_page.c **** 	// insert different keybinds combination here
 102:Core/Src/oled/led_page.c **** 	if(charNum > 1) return;
 445              		.loc 1 102 2 view .LVU96
 446              		.loc 1 102 4 is_stmt 0 view .LVU97
 447 0000 0129     		cmp	r1, #1
 448 0002 7BDC     		bgt	.L48
 100:Core/Src/oled/led_page.c **** 	// insert different keybinds combination here
 449              		.loc 1 100 49 view .LVU98
 450 0004 10B5     		push	{r4, lr}
 451              	.LCFI9:
 452              		.cfi_def_cfa_offset 8
 453              		.cfi_offset 4, -8
 454              		.cfi_offset 14, -4
 455 0006 0446     		mov	r4, r0
 103:Core/Src/oled/led_page.c **** 	//Ascii didnt lie between 128 - 255
 104:Core/Src/oled/led_page.c **** 	//Left arrow 129
 105:Core/Src/oled/led_page.c **** 	//right arrow 130
 106:Core/Src/oled/led_page.c **** 	//Up arrow 131
 107:Core/Src/oled/led_page.c **** 	//Down arrow 132
 108:Core/Src/oled/led_page.c **** 	if(combination[0] == 13){//enter
 456              		.loc 1 108 2 is_stmt 1 view .LVU99
 457              		.loc 1 108 16 is_stmt 0 view .LVU100
 458 0008 0378     		ldrb	r3, [r0]	@ zero_extendqisi2
 459              		.loc 1 108 4 view .LVU101
 460 000a 0D2B     		cmp	r3, #13
 461 000c 07D0     		beq	.L51
 462              	.LVL28:
 463              	.L35:
 109:Core/Src/oled/led_page.c **** 		led_flash();
 110:Core/Src/oled/led_page.c **** 	}
 111:Core/Src/oled/led_page.c **** 
 112:Core/Src/oled/led_page.c **** 	switch(combination[0]){
 464              		.loc 1 112 2 is_stmt 1 view .LVU102
ARM GAS  /tmp/cc9SP6by.s 			page 12


 465              		.loc 1 112 20 is_stmt 0 view .LVU103
 466 000e 2378     		ldrb	r3, [r4]	@ zero_extendqisi2
 467 0010 813B     		subs	r3, r3, #129
 468 0012 032B     		cmp	r3, #3
 469 0014 61D8     		bhi	.L36
 470 0016 DFE803F0 		tbb	[pc, r3]
 471              	.L38:
 472 001a 2A       		.byte	(.L41-.L38)/2
 473 001b 05       		.byte	(.L40-.L38)/2
 474 001c 51       		.byte	(.L39-.L38)/2
 475 001d 63       		.byte	(.L37-.L38)/2
 476              	.LVL29:
 477              		.p2align 1
 478              	.L51:
 109:Core/Src/oled/led_page.c **** 		led_flash();
 479              		.loc 1 109 3 is_stmt 1 view .LVU104
 480 001e FFF7FEFF 		bl	led_flash
 481              	.LVL30:
 109:Core/Src/oled/led_page.c **** 		led_flash();
 482              		.loc 1 109 3 is_stmt 0 view .LVU105
 483 0022 F4E7     		b	.L35
 484              	.L40:
 113:Core/Src/oled/led_page.c **** 		case 130:
 114:Core/Src/oled/led_page.c **** 			//left
 115:Core/Src/oled/led_page.c **** 			if(current_selection == 0){
 485              		.loc 1 115 4 is_stmt 1 view .LVU106
 486              		.loc 1 115 25 is_stmt 0 view .LVU107
 487 0024 364B     		ldr	r3, .L52
 488 0026 1B68     		ldr	r3, [r3]
 489              		.loc 1 115 6 view .LVU108
 490 0028 73B9     		cbnz	r3, .L42
 116:Core/Src/oled/led_page.c **** 				//save the led data here
 117:Core/Src/oled/led_page.c **** //				led_flash();
 118:Core/Src/oled/led_page.c **** 				current_led = (current_led + 1) % (MAX_LED);
 491              		.loc 1 118 5 is_stmt 1 view .LVU109
 492              		.loc 1 118 32 is_stmt 0 view .LVU110
 493 002a 3649     		ldr	r1, .L52+4
 494 002c 0B68     		ldr	r3, [r1]
 495 002e 0133     		adds	r3, r3, #1
 496              		.loc 1 118 37 view .LVU111
 497 0030 5A42     		rsbs	r2, r3, #0
 498 0032 03F00F03 		and	r3, r3, #15
 499 0036 02F00F02 		and	r2, r2, #15
 500 003a 58BF     		it	pl
 501 003c 5342     		rsbpl	r3, r2, #0
 502              		.loc 1 118 17 view .LVU112
 503 003e 0B60     		str	r3, [r1]
 119:Core/Src/oled/led_page.c **** 				current_selection = 0;
 504              		.loc 1 119 5 is_stmt 1 view .LVU113
 505              		.loc 1 119 23 is_stmt 0 view .LVU114
 506 0040 2F4B     		ldr	r3, .L52
 507 0042 0022     		movs	r2, #0
 508 0044 1A60     		str	r2, [r3]
 509 0046 48E0     		b	.L36
 510              	.L42:
 120:Core/Src/oled/led_page.c **** 			}
 121:Core/Src/oled/led_page.c **** 			else{//if value > 1
ARM GAS  /tmp/cc9SP6by.s 			page 13


 122:Core/Src/oled/led_page.c **** 				ws2812.LED_Data[current_led][current_selection - 1] = max(0, ws2812.LED_Data[current_led][curre
 511              		.loc 1 122 5 is_stmt 1 view .LVU115
 512              		.loc 1 122 59 is_stmt 0 view .LVU116
 513 0048 2E4A     		ldr	r2, .L52+4
 514 004a 1068     		ldr	r0, [r2]
 515 004c 013B     		subs	r3, r3, #1
 516 004e 2E49     		ldr	r1, .L52+8
 517 0050 01EB8001 		add	r1, r1, r0, lsl #2
 518 0054 1944     		add	r1, r1, r3
 519 0056 91F8D416 		ldrb	r1, [r1, #1748]	@ zero_extendqisi2
 520              		.loc 1 122 57 view .LVU117
 521 005a 09B1     		cbz	r1, .L43
 522              		.loc 1 122 57 discriminator 1 view .LVU118
 523 005c 0139     		subs	r1, r1, #1
 524 005e C9B2     		uxtb	r1, r1
 525              	.L43:
 526              		.loc 1 122 57 discriminator 4 view .LVU119
 527 0060 294A     		ldr	r2, .L52+8
 528 0062 02EB8002 		add	r2, r2, r0, lsl #2
 529 0066 1344     		add	r3, r3, r2
 530 0068 83F8D416 		strb	r1, [r3, #1748]
 531 006c 35E0     		b	.L36
 532              	.L41:
 123:Core/Src/oled/led_page.c **** 			}
 124:Core/Src/oled/led_page.c **** 			break;
 125:Core/Src/oled/led_page.c **** 		case 129:
 126:Core/Src/oled/led_page.c **** 			//right
 127:Core/Src/oled/led_page.c **** 			if(current_selection == 0){
 533              		.loc 1 127 4 is_stmt 1 view .LVU120
 534              		.loc 1 127 25 is_stmt 0 view .LVU121
 535 006e 244B     		ldr	r3, .L52
 536 0070 1A68     		ldr	r2, [r3]
 537              		.loc 1 127 6 view .LVU122
 538 0072 9AB9     		cbnz	r2, .L44
 128:Core/Src/oled/led_page.c **** //				led_flash();
 129:Core/Src/oled/led_page.c **** 				current_led = (current_led - 1) < 0? MAX_LED - 1: (current_led - 1) % (MAX_LED);
 539              		.loc 1 129 5 is_stmt 1 view .LVU123
 540              		.loc 1 129 37 is_stmt 0 view .LVU124
 541 0074 234B     		ldr	r3, .L52+4
 542 0076 1B68     		ldr	r3, [r3]
 543              		.loc 1 129 53 view .LVU125
 544 0078 002B     		cmp	r3, #0
 545 007a 0DDD     		ble	.L46
 546              		.loc 1 129 68 discriminator 1 view .LVU126
 547 007c 013B     		subs	r3, r3, #1
 548              		.loc 1 129 53 discriminator 1 view .LVU127
 549 007e 5A42     		rsbs	r2, r3, #0
 550 0080 03F00F03 		and	r3, r3, #15
 551 0084 02F00F02 		and	r2, r2, #15
 552 0088 58BF     		it	pl
 553 008a 5342     		rsbpl	r3, r2, #0
 554              	.L45:
 555              		.loc 1 129 17 discriminator 4 view .LVU128
 556 008c 1D4A     		ldr	r2, .L52+4
 557 008e 1360     		str	r3, [r2]
 130:Core/Src/oled/led_page.c **** 				current_selection = 0;
 558              		.loc 1 130 5 is_stmt 1 discriminator 4 view .LVU129
ARM GAS  /tmp/cc9SP6by.s 			page 14


 559              		.loc 1 130 23 is_stmt 0 discriminator 4 view .LVU130
 560 0090 1B4B     		ldr	r3, .L52
 561 0092 0022     		movs	r2, #0
 562 0094 1A60     		str	r2, [r3]
 563 0096 20E0     		b	.L36
 564              	.L46:
 129:Core/Src/oled/led_page.c **** 				current_selection = 0;
 565              		.loc 1 129 53 view .LVU131
 566 0098 0F23     		movs	r3, #15
 567 009a F7E7     		b	.L45
 568              	.L44:
 131:Core/Src/oled/led_page.c **** 			}
 132:Core/Src/oled/led_page.c **** 			else{//if value > 1
 133:Core/Src/oled/led_page.c **** 				ws2812.LED_Data[current_led][current_selection - 1] = min(255, ws2812.LED_Data[current_led][cur
 569              		.loc 1 133 5 is_stmt 1 view .LVU132
 570              		.loc 1 133 59 is_stmt 0 view .LVU133
 571 009c 194B     		ldr	r3, .L52+4
 572 009e 1968     		ldr	r1, [r3]
 573 00a0 013A     		subs	r2, r2, #1
 574 00a2 194B     		ldr	r3, .L52+8
 575 00a4 03EB8103 		add	r3, r3, r1, lsl #2
 576 00a8 1344     		add	r3, r3, r2
 577 00aa 93F8D426 		ldrb	r2, [r3, #1748]	@ zero_extendqisi2
 578              		.loc 1 133 57 view .LVU134
 579 00ae FE2A     		cmp	r2, #254
 580 00b0 28BF     		it	cs
 581 00b2 FE22     		movcs	r2, #254
 582 00b4 0132     		adds	r2, r2, #1
 583 00b6 83F8D426 		strb	r2, [r3, #1748]
 584 00ba 0EE0     		b	.L36
 585              	.L39:
 134:Core/Src/oled/led_page.c **** 			}
 135:Core/Src/oled/led_page.c **** 			break;
 136:Core/Src/oled/led_page.c **** 		case 131:
 137:Core/Src/oled/led_page.c **** 			//up
 138:Core/Src/oled/led_page.c **** 			current_selection = max(0, (current_selection - 1) % (SELECTION + 1));
 586              		.loc 1 138 4 is_stmt 1 view .LVU135
 587              		.loc 1 138 24 is_stmt 0 view .LVU136
 588 00bc 1048     		ldr	r0, .L52
 589 00be 0268     		ldr	r2, [r0]
 590 00c0 013A     		subs	r2, r2, #1
 591 00c2 1249     		ldr	r1, .L52+12
 592 00c4 81FB0231 		smull	r3, r1, r1, r2
 593 00c8 D317     		asrs	r3, r2, #31
 594 00ca C3EB6103 		rsb	r3, r3, r1, asr #1
 595 00ce 03EB8303 		add	r3, r3, r3, lsl #2
 596 00d2 D31A     		subs	r3, r2, r3
 597 00d4 23EAE373 		bic	r3, r3, r3, asr #31
 598              		.loc 1 138 22 view .LVU137
 599 00d8 0360     		str	r3, [r0]
 139:Core/Src/oled/led_page.c **** 			break;
 600              		.loc 1 139 4 is_stmt 1 view .LVU138
 601              	.L36:
 140:Core/Src/oled/led_page.c **** 		case 132:
 141:Core/Src/oled/led_page.c **** 			//down fix bug
 142:Core/Src/oled/led_page.c **** 			current_selection = (current_selection + 1) % (SELECTION + 1);
 143:Core/Src/oled/led_page.c **** 			break;
ARM GAS  /tmp/cc9SP6by.s 			page 15


 144:Core/Src/oled/led_page.c **** 
 145:Core/Src/oled/led_page.c **** 	}
 146:Core/Src/oled/led_page.c **** //else{ //enter RGB mode
 147:Core/Src/oled/led_page.c **** //	switch(combination[0]){
 148:Core/Src/oled/led_page.c **** //		case 129:
 149:Core/Src/oled/led_page.c **** //			//left
 150:Core/Src/oled/led_page.c **** //			if(current_selection == 0){
 151:Core/Src/oled/led_page.c **** //				//save the led data here
 152:Core/Src/oled/led_page.c **** //				current_led = (current_led + 1) % (MAX_LED + 1);
 153:Core/Src/oled/led_page.c **** //				current_selection = 0;
 154:Core/Src/oled/led_page.c **** //			}
 155:Core/Src/oled/led_page.c **** //			break;
 156:Core/Src/oled/led_page.c **** //		case 130:
 157:Core/Src/oled/led_page.c **** //			//right
 158:Core/Src/oled/led_page.c **** //			if(current_selection == 0){
 159:Core/Src/oled/led_page.c **** //				current_led = (current_led - 1) < 0? MAX_LED: (current_led - 1) % (MAX_LED + 1);
 160:Core/Src/oled/led_page.c **** //				current_selection = 0;
 161:Core/Src/oled/led_page.c **** //			}
 162:Core/Src/oled/led_page.c **** //			else{
 163:Core/Src/oled/led_page.c **** //				rgb_mode = current_selection - 1; //assuming enumeration
 164:Core/Src/oled/led_page.c **** //			}
 165:Core/Src/oled/led_page.c **** //			break;
 166:Core/Src/oled/led_page.c **** //		case 131:
 167:Core/Src/oled/led_page.c **** //			//up
 168:Core/Src/oled/led_page.c **** //			current_selection = max(0, (current_selection - 1) % (SELECTION + 1));
 169:Core/Src/oled/led_page.c **** //			break;
 170:Core/Src/oled/led_page.c **** //		case 132:
 171:Core/Src/oled/led_page.c **** //			//down fix bug
 172:Core/Src/oled/led_page.c **** //			current_selection = (current_selection + 1) % (SELECTION + 1);
 173:Core/Src/oled/led_page.c **** //			break;
 174:Core/Src/oled/led_page.c **** //
 175:Core/Src/oled/led_page.c **** //	}
 176:Core/Src/oled/led_page.c **** //}
 177:Core/Src/oled/led_page.c **** 	led_update();
 602              		.loc 1 177 2 view .LVU139
 603 00da FFF7FEFF 		bl	led_update
 604              	.LVL31:
 178:Core/Src/oled/led_page.c **** }
 605              		.loc 1 178 1 is_stmt 0 view .LVU140
 606 00de 10BD     		pop	{r4, pc}
 607              	.LVL32:
 608              	.L37:
 142:Core/Src/oled/led_page.c **** 			break;
 609              		.loc 1 142 4 is_stmt 1 view .LVU141
 142:Core/Src/oled/led_page.c **** 			break;
 610              		.loc 1 142 43 is_stmt 0 view .LVU142
 611 00e0 0748     		ldr	r0, .L52
 612 00e2 0268     		ldr	r2, [r0]
 613 00e4 0132     		adds	r2, r2, #1
 142:Core/Src/oled/led_page.c **** 			break;
 614              		.loc 1 142 48 view .LVU143
 615 00e6 0949     		ldr	r1, .L52+12
 616 00e8 81FB0231 		smull	r3, r1, r1, r2
 617 00ec D317     		asrs	r3, r2, #31
 618 00ee C3EB6103 		rsb	r3, r3, r1, asr #1
 619 00f2 03EB8303 		add	r3, r3, r3, lsl #2
 620 00f6 D31A     		subs	r3, r2, r3
ARM GAS  /tmp/cc9SP6by.s 			page 16


 142:Core/Src/oled/led_page.c **** 			break;
 621              		.loc 1 142 22 view .LVU144
 622 00f8 0360     		str	r3, [r0]
 143:Core/Src/oled/led_page.c **** 
 623              		.loc 1 143 4 is_stmt 1 view .LVU145
 624 00fa EEE7     		b	.L36
 625              	.LVL33:
 626              	.L48:
 627              	.LCFI10:
 628              		.cfi_def_cfa_offset 0
 629              		.cfi_restore 4
 630              		.cfi_restore 14
 143:Core/Src/oled/led_page.c **** 
 631              		.loc 1 143 4 is_stmt 0 view .LVU146
 632 00fc 7047     		bx	lr
 633              	.L53:
 634 00fe 00BF     		.align	2
 635              	.L52:
 636 0100 00000000 		.word	.LANCHOR2
 637 0104 00000000 		.word	.LANCHOR1
 638 0108 00000000 		.word	ws2812
 639 010c 67666666 		.word	1717986919
 640              		.cfi_endproc
 641              	.LFE69:
 643              		.section	.text.led_page_update,"ax",%progbits
 644              		.align	1
 645              		.global	led_page_update
 646              		.syntax unified
 647              		.thumb
 648              		.thumb_func
 649              		.fpu softvfp
 651              	led_page_update:
 652              	.LFB70:
 179:Core/Src/oled/led_page.c **** 
 180:Core/Src/oled/led_page.c **** void led_page_update(){
 653              		.loc 1 180 23 is_stmt 1 view -0
 654              		.cfi_startproc
 655              		@ args = 0, pretend = 0, frame = 0
 656              		@ frame_needed = 0, uses_anonymous_args = 0
 657              		@ link register save eliminated.
 181:Core/Src/oled/led_page.c **** 
 182:Core/Src/oled/led_page.c **** }
 658              		.loc 1 182 1 view .LVU148
 659 0000 7047     		bx	lr
 660              		.cfi_endproc
 661              	.LFE70:
 663              		.global	led_init_value
 664              		.global	current_selection
 665              		.global	current_led
 666              		.global	led
 667              		.global	led_aura
 668              		.section	.rodata.str1.4,"aMS",%progbits,1
 669              		.align	2
 670              	.LC3:
 671 0000 57533238 		.ascii	"WS2812DISABLE\000"
 671      31324449 
 671      5341424C 
ARM GAS  /tmp/cc9SP6by.s 			page 17


 671      4500
 672 000e 0000     		.align	2
 673              	.LC4:
 674 0010 53544154 		.ascii	"STATICMODE\000"
 674      49434D4F 
 674      444500
 675 001b 00       		.align	2
 676              	.LC5:
 677 001c 42524541 		.ascii	"BREATHMODE\000"
 677      54484D4F 
 677      444500
 678 0027 00       		.align	2
 679              	.LC6:
 680 0028 4C4F4F50 		.ascii	"LOOPMODE\000"
 680      4D4F4445 
 680      00
 681              		.global	oled_color
 682 0031 000000   		.align	2
 683              	.LC7:
 684 0034 62726967 		.ascii	"bright\000"
 684      687400
 685 003b 00       		.align	2
 686              	.LC8:
 687 003c 67726565 		.ascii	"green\000"
 687      6E00
 688 0042 0000     		.align	2
 689              	.LC9:
 690 0044 72656400 		.ascii	"red\000"
 691              		.align	2
 692              	.LC10:
 693 0048 626C7565 		.ascii	"blue\000"
 693      00
 694              		.section	.bss.current_led,"aw",%nobits
 695              		.align	2
 696              		.set	.LANCHOR1,. + 0
 699              	current_led:
 700 0000 00000000 		.space	4
 701              		.section	.bss.current_selection,"aw",%nobits
 702              		.align	2
 703              		.set	.LANCHOR2,. + 0
 706              	current_selection:
 707 0000 00000000 		.space	4
 708              		.section	.bss.led_init_value,"aw",%nobits
 709              		.set	.LANCHOR0,. + 0
 712              	led_init_value:
 713 0000 00       		.space	1
 714              		.section	.data.led,"aw"
 715              		.align	2
 718              	led:
 719 0000 4C454400 		.ascii	"LED\000"
 720 0004 00000000 		.space	26
 720      00000000 
 720      00000000 
 720      00000000 
 720      00000000 
 721 001e 0000     		.space	2
 722 0020 00000000 		.word	led_update
ARM GAS  /tmp/cc9SP6by.s 			page 18


 723 0024 00000000 		.word	led_onclick
 724 0028 00000000 		.word	led_init
 725              		.section	.data.led_aura,"aw"
 726              		.align	2
 729              	led_aura:
 730 0000 00000000 		.word	.LC3
 731 0004 10000000 		.word	.LC4
 732 0008 1C000000 		.word	.LC5
 733 000c 28000000 		.word	.LC6
 734 0010 00000000 		.space	64
 734      00000000 
 734      00000000 
 734      00000000 
 734      00000000 
 735              		.section	.data.oled_color,"aw"
 736              		.align	2
 737              		.set	.LANCHOR3,. + 0
 740              	oled_color:
 741 0000 34000000 		.word	.LC7
 742 0004 3C000000 		.word	.LC8
 743 0008 44000000 		.word	.LC9
 744 000c 48000000 		.word	.LC10
 745 0010 00000000 		.space	64
 745      00000000 
 745      00000000 
 745      00000000 
 745      00000000 
 746              		.text
 747              	.Letext0:
 748              		.file 2 "/usr/lib/gcc/arm-none-eabi/9.2.1/include/stdint.h"
 749              		.file 3 "Drivers/CMSIS/Include/core_cm3.h"
 750              		.file 4 "Drivers/CMSIS/Device/ST/STM32F1xx/Include/system_stm32f1xx.h"
 751              		.file 5 "Drivers/CMSIS/Device/ST/STM32F1xx/Include/stm32f103xe.h"
 752              		.file 6 "/usr/lib/gcc/arm-none-eabi/9.2.1/include/stddef.h"
 753              		.file 7 "/usr/include/newlib/sys/_types.h"
 754              		.file 8 "/usr/include/newlib/sys/reent.h"
 755              		.file 9 "/usr/include/newlib/sys/lock.h"
 756              		.file 10 "Drivers/STM32F1xx_HAL_Driver/Inc/stm32f1xx_hal_def.h"
 757              		.file 11 "Drivers/STM32F1xx_HAL_Driver/Inc/stm32f1xx_hal_dma.h"
 758              		.file 12 "Drivers/STM32F1xx_HAL_Driver/Inc/stm32f1xx_hal_i2c.h"
 759              		.file 13 "Drivers/STM32F1xx_HAL_Driver/Inc/stm32f1xx_hal_tim.h"
 760              		.file 14 "Drivers/STM32F1xx_HAL_Driver/Inc/stm32f1xx_hal.h"
 761              		.file 15 "Core/Src/oled/../../Inc/oled/ssd1306_fonts.h"
 762              		.file 16 "Core/Src/oled/../../Inc/oled/ssd1306.h"
 763              		.file 17 "Core/Src/oled/../../Inc/oled/page_template.h"
 764              		.file 18 "/usr/include/newlib/stdlib.h"
 765              		.file 19 "Core/Inc/RGB.h"
 766              		.file 20 "/usr/include/newlib/math.h"
 767              		.file 21 "Core/Src/oled/../../Inc/oled/led_page.h"
 768              		.file 22 "/usr/include/newlib/stdio.h"
 769              		.file 23 "Core/Inc/flash.h"
ARM GAS  /tmp/cc9SP6by.s 			page 19

