ARM GAS  /tmp/ccNW3NHN.s 			page 1


   1              		.cpu cortex-m3
   2              		.eabi_attribute 20, 1
   3              		.eabi_attribute 21, 1
   4              		.eabi_attribute 23, 3
   5              		.eabi_attribute 24, 1
   6              		.eabi_attribute 25, 1
   7              		.eabi_attribute 26, 1
   8              		.eabi_attribute 30, 1
   9              		.eabi_attribute 34, 1
  10              		.eabi_attribute 18, 4
  11              		.file	"oled_manager.c"
  12              		.text
  13              	.Ltext0:
  14              		.cfi_sections	.debug_frame
  15              		.section	.text.oled_clear_title,"ax",%progbits
  16              		.align	1
  17              		.global	oled_clear_title
  18              		.arch armv7-m
  19              		.syntax unified
  20              		.thumb
  21              		.thumb_func
  22              		.fpu softvfp
  24              	oled_clear_title:
  25              	.LFB67:
  26              		.file 1 "Core/Src/oled/oled_manager.c"
   1:Core/Src/oled/oled_manager.c **** /*
   2:Core/Src/oled/oled_manager.c ****  * oled_manager.c
   3:Core/Src/oled/oled_manager.c ****  *
   4:Core/Src/oled/oled_manager.c ****  *  Created on: Oct 29, 2021
   5:Core/Src/oled/oled_manager.c ****  *      Author: Steven
   6:Core/Src/oled/oled_manager.c ****  */
   7:Core/Src/oled/oled_manager.c **** 
   8:Core/Src/oled/oled_manager.c **** #include "../../Inc/oled/oled_manager.h"
   9:Core/Src/oled/oled_manager.c **** 
  10:Core/Src/oled/oled_manager.c **** extern PAGE status;
  11:Core/Src/oled/oled_manager.c **** extern PAGE led;
  12:Core/Src/oled/oled_manager.c **** extern PAGE macro;
  13:Core/Src/oled/oled_manager.c **** extern PAGE finger;
  14:Core/Src/oled/oled_manager.c **** extern PAGE rgb_pattern;
  15:Core/Src/oled/oled_manager.c **** 
  16:Core/Src/oled/oled_manager.c **** int currentPage = 0;
  17:Core/Src/oled/oled_manager.c **** PAGE *page_array[] = {&status, &rgb_pattern, &led, &macro, &finger};
  18:Core/Src/oled/oled_manager.c **** 
  19:Core/Src/oled/oled_manager.c **** void oled_ui_init(){
  20:Core/Src/oled/oled_manager.c **** 	ssd1306_Init();
  21:Core/Src/oled/oled_manager.c **** 	oled_page_init();
  22:Core/Src/oled/oled_manager.c **** 	//set up the line division
  23:Core/Src/oled/oled_manager.c **** 	for(int i = LINE_POSITION; i < LINE_END; i++){
  24:Core/Src/oled/oled_manager.c **** 		ssd1306_Line(0, i, SSD1306_WIDTH, i, White);
  25:Core/Src/oled/oled_manager.c **** 	}
  26:Core/Src/oled/oled_manager.c **** 	oled_update_page();
  27:Core/Src/oled/oled_manager.c **** }
  28:Core/Src/oled/oled_manager.c **** 
  29:Core/Src/oled/oled_manager.c **** void oled_clear_title(){
  27              		.loc 1 29 24 view -0
  28              		.cfi_startproc
  29              		@ args = 0, pretend = 0, frame = 0
ARM GAS  /tmp/ccNW3NHN.s 			page 2


  30              		@ frame_needed = 0, uses_anonymous_args = 0
  31 0000 10B5     		push	{r4, lr}
  32              	.LCFI0:
  33              		.cfi_def_cfa_offset 8
  34              		.cfi_offset 4, -8
  35              		.cfi_offset 14, -4
  36 0002 82B0     		sub	sp, sp, #8
  37              	.LCFI1:
  38              		.cfi_def_cfa_offset 16
  30:Core/Src/oled/oled_manager.c **** 
  31:Core/Src/oled/oled_manager.c **** 	for(int i = 0; i <  LINE_POSITION; i++){
  39              		.loc 1 31 2 view .LVU1
  40              	.LBB2:
  41              		.loc 1 31 6 view .LVU2
  42              	.LVL0:
  43              		.loc 1 31 10 is_stmt 0 view .LVU3
  44 0004 0024     		movs	r4, #0
  45              	.LVL1:
  46              	.L2:
  47              		.loc 1 31 17 is_stmt 1 discriminator 1 view .LVU4
  48              		.loc 1 31 2 is_stmt 0 discriminator 1 view .LVU5
  49 0006 0B2C     		cmp	r4, #11
  50 0008 08DC     		bgt	.L5
  32:Core/Src/oled/oled_manager.c **** 		ssd1306_Line(0, i, SSD1306_WIDTH, i, Black);
  51              		.loc 1 32 3 is_stmt 1 discriminator 3 view .LVU6
  52 000a E1B2     		uxtb	r1, r4
  53 000c 0020     		movs	r0, #0
  54 000e 0090     		str	r0, [sp]
  55 0010 0B46     		mov	r3, r1
  56 0012 8022     		movs	r2, #128
  57 0014 FFF7FEFF 		bl	ssd1306_Line
  58              	.LVL2:
  31:Core/Src/oled/oled_manager.c **** 		ssd1306_Line(0, i, SSD1306_WIDTH, i, Black);
  59              		.loc 1 31 37 discriminator 3 view .LVU7
  31:Core/Src/oled/oled_manager.c **** 		ssd1306_Line(0, i, SSD1306_WIDTH, i, Black);
  60              		.loc 1 31 38 is_stmt 0 discriminator 3 view .LVU8
  61 0018 0134     		adds	r4, r4, #1
  62              	.LVL3:
  31:Core/Src/oled/oled_manager.c **** 		ssd1306_Line(0, i, SSD1306_WIDTH, i, Black);
  63              		.loc 1 31 38 discriminator 3 view .LVU9
  64 001a F4E7     		b	.L2
  65              	.L5:
  31:Core/Src/oled/oled_manager.c **** 		ssd1306_Line(0, i, SSD1306_WIDTH, i, Black);
  66              		.loc 1 31 38 discriminator 3 view .LVU10
  67              	.LBE2:
  33:Core/Src/oled/oled_manager.c **** 	}
  34:Core/Src/oled/oled_manager.c **** 
  35:Core/Src/oled/oled_manager.c **** }
  68              		.loc 1 35 1 view .LVU11
  69 001c 02B0     		add	sp, sp, #8
  70              	.LCFI2:
  71              		.cfi_def_cfa_offset 8
  72              		@ sp needed
  73 001e 10BD     		pop	{r4, pc}
  74              		.loc 1 35 1 view .LVU12
  75              		.cfi_endproc
  76              	.LFE67:
ARM GAS  /tmp/ccNW3NHN.s 			page 3


  78              		.section	.text.oled_clear_menu,"ax",%progbits
  79              		.align	1
  80              		.global	oled_clear_menu
  81              		.syntax unified
  82              		.thumb
  83              		.thumb_func
  84              		.fpu softvfp
  86              	oled_clear_menu:
  87              	.LFB68:
  36:Core/Src/oled/oled_manager.c **** 
  37:Core/Src/oled/oled_manager.c **** void oled_clear_menu(){
  88              		.loc 1 37 23 is_stmt 1 view -0
  89              		.cfi_startproc
  90              		@ args = 0, pretend = 0, frame = 0
  91              		@ frame_needed = 0, uses_anonymous_args = 0
  92 0000 10B5     		push	{r4, lr}
  93              	.LCFI3:
  94              		.cfi_def_cfa_offset 8
  95              		.cfi_offset 4, -8
  96              		.cfi_offset 14, -4
  97 0002 82B0     		sub	sp, sp, #8
  98              	.LCFI4:
  99              		.cfi_def_cfa_offset 16
  38:Core/Src/oled/oled_manager.c **** 	for(int i = LINE_END; i < SSD1306_HEIGHT; i++){
 100              		.loc 1 38 2 view .LVU14
 101              	.LBB3:
 102              		.loc 1 38 6 view .LVU15
 103              	.LVL4:
 104              		.loc 1 38 10 is_stmt 0 view .LVU16
 105 0004 1124     		movs	r4, #17
 106              		.loc 1 38 2 view .LVU17
 107 0006 07E0     		b	.L7
 108              	.LVL5:
 109              	.L8:
  39:Core/Src/oled/oled_manager.c **** 		ssd1306_Line(0, i, SSD1306_WIDTH, i, Black);
 110              		.loc 1 39 3 is_stmt 1 discriminator 3 view .LVU18
 111 0008 E1B2     		uxtb	r1, r4
 112 000a 0020     		movs	r0, #0
 113 000c 0090     		str	r0, [sp]
 114 000e 0B46     		mov	r3, r1
 115 0010 8022     		movs	r2, #128
 116 0012 FFF7FEFF 		bl	ssd1306_Line
 117              	.LVL6:
  38:Core/Src/oled/oled_manager.c **** 	for(int i = LINE_END; i < SSD1306_HEIGHT; i++){
 118              		.loc 1 38 44 discriminator 3 view .LVU19
  38:Core/Src/oled/oled_manager.c **** 	for(int i = LINE_END; i < SSD1306_HEIGHT; i++){
 119              		.loc 1 38 45 is_stmt 0 discriminator 3 view .LVU20
 120 0016 0134     		adds	r4, r4, #1
 121              	.LVL7:
 122              	.L7:
  38:Core/Src/oled/oled_manager.c **** 	for(int i = LINE_END; i < SSD1306_HEIGHT; i++){
 123              		.loc 1 38 24 is_stmt 1 discriminator 1 view .LVU21
  38:Core/Src/oled/oled_manager.c **** 	for(int i = LINE_END; i < SSD1306_HEIGHT; i++){
 124              		.loc 1 38 2 is_stmt 0 discriminator 1 view .LVU22
 125 0018 3F2C     		cmp	r4, #63
 126 001a F5DD     		ble	.L8
 127              	.LBE3:
ARM GAS  /tmp/ccNW3NHN.s 			page 4


  40:Core/Src/oled/oled_manager.c **** 	}
  41:Core/Src/oled/oled_manager.c **** }
 128              		.loc 1 41 1 view .LVU23
 129 001c 02B0     		add	sp, sp, #8
 130              	.LCFI5:
 131              		.cfi_def_cfa_offset 8
 132              		@ sp needed
 133 001e 10BD     		pop	{r4, pc}
 134              		.loc 1 41 1 view .LVU24
 135              		.cfi_endproc
 136              	.LFE68:
 138              		.section	.text.oled_update_page,"ax",%progbits
 139              		.align	1
 140              		.global	oled_update_page
 141              		.syntax unified
 142              		.thumb
 143              		.thumb_func
 144              		.fpu softvfp
 146              	oled_update_page:
 147              	.LFB69:
  42:Core/Src/oled/oled_manager.c **** 
  43:Core/Src/oled/oled_manager.c **** void oled_update_page(){
 148              		.loc 1 43 24 is_stmt 1 view -0
 149              		.cfi_startproc
 150              		@ args = 0, pretend = 0, frame = 0
 151              		@ frame_needed = 0, uses_anonymous_args = 0
 152 0000 38B5     		push	{r3, r4, r5, lr}
 153              	.LCFI6:
 154              		.cfi_def_cfa_offset 16
 155              		.cfi_offset 3, -16
 156              		.cfi_offset 4, -12
 157              		.cfi_offset 5, -8
 158              		.cfi_offset 14, -4
  44:Core/Src/oled/oled_manager.c **** 	oled_clear_title();
 159              		.loc 1 44 2 view .LVU26
 160 0002 FFF7FEFF 		bl	oled_clear_title
 161              	.LVL8:
  45:Core/Src/oled/oled_manager.c **** 	oled_clear_menu();
 162              		.loc 1 45 2 view .LVU27
 163 0006 FFF7FEFF 		bl	oled_clear_menu
 164              	.LVL9:
  46:Core/Src/oled/oled_manager.c **** 
  47:Core/Src/oled/oled_manager.c **** 	ssd1306_SetCursor(0, 10);
 165              		.loc 1 47 2 view .LVU28
 166 000a 0A21     		movs	r1, #10
 167 000c 0020     		movs	r0, #0
 168 000e FFF7FEFF 		bl	ssd1306_SetCursor
 169              	.LVL10:
  48:Core/Src/oled/oled_manager.c **** 
  49:Core/Src/oled/oled_manager.c **** 
  50:Core/Src/oled/oled_manager.c **** 	ssd1306_SetCursor(0, 1);
 170              		.loc 1 50 2 view .LVU29
 171 0012 0121     		movs	r1, #1
 172 0014 0020     		movs	r0, #0
 173 0016 FFF7FEFF 		bl	ssd1306_SetCursor
 174              	.LVL11:
  51:Core/Src/oled/oled_manager.c **** 	ssd1306_WriteString((page_array[currentPage])->title, Font_7x10, White);
ARM GAS  /tmp/ccNW3NHN.s 			page 5


 175              		.loc 1 51 2 view .LVU30
 176              		.loc 1 51 33 is_stmt 0 view .LVU31
 177 001a 094C     		ldr	r4, .L12
 178 001c 094D     		ldr	r5, .L12+4
 179 001e 2868     		ldr	r0, [r5]
 180              		.loc 1 51 2 view .LVU32
 181 0020 094A     		ldr	r2, .L12+8
 182 0022 0123     		movs	r3, #1
 183 0024 06CA     		ldm	r2, {r1, r2}
 184 0026 54F82000 		ldr	r0, [r4, r0, lsl #2]
 185 002a FFF7FEFF 		bl	ssd1306_WriteString
 186              	.LVL12:
  52:Core/Src/oled/oled_manager.c **** 	(page_array[currentPage]->update_page)();
 187              		.loc 1 52 2 is_stmt 1 view .LVU33
 188              		.loc 1 52 13 is_stmt 0 view .LVU34
 189 002e 2B68     		ldr	r3, [r5]
 190 0030 54F82330 		ldr	r3, [r4, r3, lsl #2]
 191              		.loc 1 52 26 view .LVU35
 192 0034 1B6A     		ldr	r3, [r3, #32]
 193 0036 9847     		blx	r3
 194              	.LVL13:
  53:Core/Src/oled/oled_manager.c **** 	ssd1306_UpdateScreen();
 195              		.loc 1 53 2 is_stmt 1 view .LVU36
 196 0038 FFF7FEFF 		bl	ssd1306_UpdateScreen
 197              	.LVL14:
  54:Core/Src/oled/oled_manager.c **** }
 198              		.loc 1 54 1 is_stmt 0 view .LVU37
 199 003c 38BD     		pop	{r3, r4, r5, pc}
 200              	.L13:
 201 003e 00BF     		.align	2
 202              	.L12:
 203 0040 00000000 		.word	.LANCHOR0
 204 0044 00000000 		.word	.LANCHOR1
 205 0048 00000000 		.word	Font_7x10
 206              		.cfi_endproc
 207              	.LFE69:
 209              		.section	.text.oled_next_page,"ax",%progbits
 210              		.align	1
 211              		.global	oled_next_page
 212              		.syntax unified
 213              		.thumb
 214              		.thumb_func
 215              		.fpu softvfp
 217              	oled_next_page:
 218              	.LFB70:
  55:Core/Src/oled/oled_manager.c **** 
  56:Core/Src/oled/oled_manager.c **** void oled_next_page(){
 219              		.loc 1 56 22 is_stmt 1 view -0
 220              		.cfi_startproc
 221              		@ args = 0, pretend = 0, frame = 0
 222              		@ frame_needed = 0, uses_anonymous_args = 0
 223 0000 08B5     		push	{r3, lr}
 224              	.LCFI7:
 225              		.cfi_def_cfa_offset 8
 226              		.cfi_offset 3, -8
 227              		.cfi_offset 14, -4
  57:Core/Src/oled/oled_manager.c **** 	currentPage = (currentPage + 1) % (sizeof(page_array)/sizeof(*page_array));
ARM GAS  /tmp/ccNW3NHN.s 			page 6


 228              		.loc 1 57 2 view .LVU39
 229              		.loc 1 57 29 is_stmt 0 view .LVU40
 230 0002 0748     		ldr	r0, .L16
 231 0004 0368     		ldr	r3, [r0]
 232 0006 0133     		adds	r3, r3, #1
 233              		.loc 1 57 34 view .LVU41
 234 0008 064A     		ldr	r2, .L16+4
 235 000a A2FB0312 		umull	r1, r2, r2, r3
 236 000e 22F00301 		bic	r1, r2, #3
 237 0012 01EB9202 		add	r2, r1, r2, lsr #2
 238 0016 9B1A     		subs	r3, r3, r2
 239              		.loc 1 57 14 view .LVU42
 240 0018 0360     		str	r3, [r0]
  58:Core/Src/oled/oled_manager.c **** 	oled_update_page();
 241              		.loc 1 58 2 is_stmt 1 view .LVU43
 242 001a FFF7FEFF 		bl	oled_update_page
 243              	.LVL15:
  59:Core/Src/oled/oled_manager.c **** }
 244              		.loc 1 59 1 is_stmt 0 view .LVU44
 245 001e 08BD     		pop	{r3, pc}
 246              	.L17:
 247              		.align	2
 248              	.L16:
 249 0020 00000000 		.word	.LANCHOR1
 250 0024 CDCCCCCC 		.word	-858993459
 251              		.cfi_endproc
 252              	.LFE70:
 254              		.section	.text.oled_on_click_page,"ax",%progbits
 255              		.align	1
 256              		.global	oled_on_click_page
 257              		.syntax unified
 258              		.thumb
 259              		.thumb_func
 260              		.fpu softvfp
 262              	oled_on_click_page:
 263              	.LVL16:
 264              	.LFB71:
  60:Core/Src/oled/oled_manager.c **** 
  61:Core/Src/oled/oled_manager.c **** void oled_on_click_page(char *array, int arrayNum){
 265              		.loc 1 61 51 is_stmt 1 view -0
 266              		.cfi_startproc
 267              		@ args = 0, pretend = 0, frame = 0
 268              		@ frame_needed = 0, uses_anonymous_args = 0
 269              		.loc 1 61 51 is_stmt 0 view .LVU46
 270 0000 38B5     		push	{r3, r4, r5, lr}
 271              	.LCFI8:
 272              		.cfi_def_cfa_offset 16
 273              		.cfi_offset 3, -16
 274              		.cfi_offset 4, -12
 275              		.cfi_offset 5, -8
 276              		.cfi_offset 14, -4
 277 0002 0446     		mov	r4, r0
 278 0004 0D46     		mov	r5, r1
  62:Core/Src/oled/oled_manager.c **** 	oled_clear_menu();
 279              		.loc 1 62 2 is_stmt 1 view .LVU47
 280 0006 FFF7FEFF 		bl	oled_clear_menu
 281              	.LVL17:
ARM GAS  /tmp/ccNW3NHN.s 			page 7


  63:Core/Src/oled/oled_manager.c **** 	(page_array[currentPage]->on_click)(array, arrayNum);
 282              		.loc 1 63 2 view .LVU48
 283              		.loc 1 63 13 is_stmt 0 view .LVU49
 284 000a 064B     		ldr	r3, .L20
 285 000c 1A68     		ldr	r2, [r3]
 286 000e 064B     		ldr	r3, .L20+4
 287 0010 53F82230 		ldr	r3, [r3, r2, lsl #2]
 288              		.loc 1 63 26 view .LVU50
 289 0014 5B6A     		ldr	r3, [r3, #36]
 290 0016 2946     		mov	r1, r5
 291 0018 2046     		mov	r0, r4
 292 001a 9847     		blx	r3
 293              	.LVL18:
  64:Core/Src/oled/oled_manager.c **** 	ssd1306_UpdateScreen();
 294              		.loc 1 64 2 is_stmt 1 view .LVU51
 295 001c FFF7FEFF 		bl	ssd1306_UpdateScreen
 296              	.LVL19:
  65:Core/Src/oled/oled_manager.c **** }
 297              		.loc 1 65 1 is_stmt 0 view .LVU52
 298 0020 38BD     		pop	{r3, r4, r5, pc}
 299              	.LVL20:
 300              	.L21:
 301              		.loc 1 65 1 view .LVU53
 302 0022 00BF     		.align	2
 303              	.L20:
 304 0024 00000000 		.word	.LANCHOR1
 305 0028 00000000 		.word	.LANCHOR0
 306              		.cfi_endproc
 307              	.LFE71:
 309              		.section	.text.oled_page_init,"ax",%progbits
 310              		.align	1
 311              		.global	oled_page_init
 312              		.syntax unified
 313              		.thumb
 314              		.thumb_func
 315              		.fpu softvfp
 317              	oled_page_init:
 318              	.LFB72:
  66:Core/Src/oled/oled_manager.c **** 
  67:Core/Src/oled/oled_manager.c **** void oled_page_init(){
 319              		.loc 1 67 22 is_stmt 1 view -0
 320              		.cfi_startproc
 321              		@ args = 0, pretend = 0, frame = 0
 322              		@ frame_needed = 0, uses_anonymous_args = 0
 323 0000 10B5     		push	{r4, lr}
 324              	.LCFI9:
 325              		.cfi_def_cfa_offset 8
 326              		.cfi_offset 4, -8
 327              		.cfi_offset 14, -4
  68:Core/Src/oled/oled_manager.c **** 	for(int i = 0; i < 5; i++){
 328              		.loc 1 68 2 view .LVU55
 329              	.LBB4:
 330              		.loc 1 68 6 view .LVU56
 331              	.LVL21:
 332              		.loc 1 68 10 is_stmt 0 view .LVU57
 333 0002 0024     		movs	r4, #0
 334              		.loc 1 68 2 view .LVU58
ARM GAS  /tmp/ccNW3NHN.s 			page 8


 335 0004 00E0     		b	.L23
 336              	.LVL22:
 337              	.L24:
 338              		.loc 1 68 24 is_stmt 1 discriminator 2 view .LVU59
 339              		.loc 1 68 25 is_stmt 0 discriminator 2 view .LVU60
 340 0006 0134     		adds	r4, r4, #1
 341              	.LVL23:
 342              	.L23:
 343              		.loc 1 68 17 is_stmt 1 discriminator 1 view .LVU61
 344              		.loc 1 68 2 is_stmt 0 discriminator 1 view .LVU62
 345 0008 042C     		cmp	r4, #4
 346 000a 07DC     		bgt	.L27
  69:Core/Src/oled/oled_manager.c **** 		if(page_array[i]->init == NULL)continue;
 347              		.loc 1 69 3 is_stmt 1 view .LVU63
 348              		.loc 1 69 16 is_stmt 0 view .LVU64
 349 000c 044B     		ldr	r3, .L28
 350 000e 53F82430 		ldr	r3, [r3, r4, lsl #2]
 351              		.loc 1 69 19 view .LVU65
 352 0012 9B6A     		ldr	r3, [r3, #40]
 353              		.loc 1 69 5 view .LVU66
 354 0014 002B     		cmp	r3, #0
 355 0016 F6D0     		beq	.L24
  70:Core/Src/oled/oled_manager.c **** 		(page_array[i]->init)();
 356              		.loc 1 70 3 is_stmt 1 view .LVU67
 357              		.loc 1 70 17 is_stmt 0 view .LVU68
 358 0018 9847     		blx	r3
 359              	.LVL24:
 360 001a F4E7     		b	.L24
 361              	.L27:
 362              	.LBE4:
  71:Core/Src/oled/oled_manager.c **** 	}
  72:Core/Src/oled/oled_manager.c **** }
 363              		.loc 1 72 1 view .LVU69
 364 001c 10BD     		pop	{r4, pc}
 365              	.LVL25:
 366              	.L29:
 367              		.loc 1 72 1 view .LVU70
 368 001e 00BF     		.align	2
 369              	.L28:
 370 0020 00000000 		.word	.LANCHOR0
 371              		.cfi_endproc
 372              	.LFE72:
 374              		.section	.text.oled_ui_init,"ax",%progbits
 375              		.align	1
 376              		.global	oled_ui_init
 377              		.syntax unified
 378              		.thumb
 379              		.thumb_func
 380              		.fpu softvfp
 382              	oled_ui_init:
 383              	.LFB66:
  19:Core/Src/oled/oled_manager.c **** 	ssd1306_Init();
 384              		.loc 1 19 20 is_stmt 1 view -0
 385              		.cfi_startproc
 386              		@ args = 0, pretend = 0, frame = 0
 387              		@ frame_needed = 0, uses_anonymous_args = 0
 388 0000 10B5     		push	{r4, lr}
ARM GAS  /tmp/ccNW3NHN.s 			page 9


 389              	.LCFI10:
 390              		.cfi_def_cfa_offset 8
 391              		.cfi_offset 4, -8
 392              		.cfi_offset 14, -4
 393 0002 82B0     		sub	sp, sp, #8
 394              	.LCFI11:
 395              		.cfi_def_cfa_offset 16
  20:Core/Src/oled/oled_manager.c **** 	oled_page_init();
 396              		.loc 1 20 2 view .LVU72
 397 0004 FFF7FEFF 		bl	ssd1306_Init
 398              	.LVL26:
  21:Core/Src/oled/oled_manager.c **** 	//set up the line division
 399              		.loc 1 21 2 view .LVU73
 400 0008 FFF7FEFF 		bl	oled_page_init
 401              	.LVL27:
  23:Core/Src/oled/oled_manager.c **** 		ssd1306_Line(0, i, SSD1306_WIDTH, i, White);
 402              		.loc 1 23 2 view .LVU74
 403              	.LBB5:
  23:Core/Src/oled/oled_manager.c **** 		ssd1306_Line(0, i, SSD1306_WIDTH, i, White);
 404              		.loc 1 23 6 view .LVU75
  23:Core/Src/oled/oled_manager.c **** 		ssd1306_Line(0, i, SSD1306_WIDTH, i, White);
 405              		.loc 1 23 10 is_stmt 0 view .LVU76
 406 000c 0C24     		movs	r4, #12
 407              	.LVL28:
 408              	.L31:
  23:Core/Src/oled/oled_manager.c **** 		ssd1306_Line(0, i, SSD1306_WIDTH, i, White);
 409              		.loc 1 23 29 is_stmt 1 discriminator 1 view .LVU77
  23:Core/Src/oled/oled_manager.c **** 		ssd1306_Line(0, i, SSD1306_WIDTH, i, White);
 410              		.loc 1 23 2 is_stmt 0 discriminator 1 view .LVU78
 411 000e 102C     		cmp	r4, #16
 412 0010 09DC     		bgt	.L34
  24:Core/Src/oled/oled_manager.c **** 	}
 413              		.loc 1 24 3 is_stmt 1 discriminator 3 view .LVU79
 414 0012 E1B2     		uxtb	r1, r4
 415 0014 0123     		movs	r3, #1
 416 0016 0093     		str	r3, [sp]
 417 0018 0B46     		mov	r3, r1
 418 001a 8022     		movs	r2, #128
 419 001c 0020     		movs	r0, #0
 420 001e FFF7FEFF 		bl	ssd1306_Line
 421              	.LVL29:
  23:Core/Src/oled/oled_manager.c **** 		ssd1306_Line(0, i, SSD1306_WIDTH, i, White);
 422              		.loc 1 23 43 discriminator 3 view .LVU80
  23:Core/Src/oled/oled_manager.c **** 		ssd1306_Line(0, i, SSD1306_WIDTH, i, White);
 423              		.loc 1 23 44 is_stmt 0 discriminator 3 view .LVU81
 424 0022 0134     		adds	r4, r4, #1
 425              	.LVL30:
  23:Core/Src/oled/oled_manager.c **** 		ssd1306_Line(0, i, SSD1306_WIDTH, i, White);
 426              		.loc 1 23 44 discriminator 3 view .LVU82
 427 0024 F3E7     		b	.L31
 428              	.L34:
  23:Core/Src/oled/oled_manager.c **** 		ssd1306_Line(0, i, SSD1306_WIDTH, i, White);
 429              		.loc 1 23 44 discriminator 3 view .LVU83
 430              	.LBE5:
  26:Core/Src/oled/oled_manager.c **** }
 431              		.loc 1 26 2 is_stmt 1 view .LVU84
 432 0026 FFF7FEFF 		bl	oled_update_page
ARM GAS  /tmp/ccNW3NHN.s 			page 10


 433              	.LVL31:
  27:Core/Src/oled/oled_manager.c **** 
 434              		.loc 1 27 1 is_stmt 0 view .LVU85
 435 002a 02B0     		add	sp, sp, #8
 436              	.LCFI12:
 437              		.cfi_def_cfa_offset 8
 438              		@ sp needed
 439 002c 10BD     		pop	{r4, pc}
  27:Core/Src/oled/oled_manager.c **** 
 440              		.loc 1 27 1 view .LVU86
 441              		.cfi_endproc
 442              	.LFE66:
 444              		.global	page_array
 445              		.global	currentPage
 446              		.section	.bss.currentPage,"aw",%nobits
 447              		.align	2
 448              		.set	.LANCHOR1,. + 0
 451              	currentPage:
 452 0000 00000000 		.space	4
 453              		.section	.data.page_array,"aw"
 454              		.align	2
 455              		.set	.LANCHOR0,. + 0
 458              	page_array:
 459 0000 00000000 		.word	status
 460 0004 00000000 		.word	rgb_pattern
 461 0008 00000000 		.word	led
 462 000c 00000000 		.word	macro
 463 0010 00000000 		.word	finger
 464              		.text
 465              	.Letext0:
 466              		.file 2 "/usr/lib/gcc/arm-none-eabi/9.2.1/include/stdint.h"
 467              		.file 3 "Drivers/CMSIS/Include/core_cm3.h"
 468              		.file 4 "Drivers/CMSIS/Device/ST/STM32F1xx/Include/system_stm32f1xx.h"
 469              		.file 5 "Drivers/CMSIS/Device/ST/STM32F1xx/Include/stm32f103xe.h"
 470              		.file 6 "/usr/lib/gcc/arm-none-eabi/9.2.1/include/stddef.h"
 471              		.file 7 "/usr/include/newlib/sys/_types.h"
 472              		.file 8 "/usr/include/newlib/sys/reent.h"
 473              		.file 9 "/usr/include/newlib/sys/lock.h"
 474              		.file 10 "Drivers/STM32F1xx_HAL_Driver/Inc/stm32f1xx_hal_def.h"
 475              		.file 11 "Drivers/STM32F1xx_HAL_Driver/Inc/stm32f1xx_hal_dma.h"
 476              		.file 12 "Drivers/STM32F1xx_HAL_Driver/Inc/stm32f1xx_hal_i2c.h"
 477              		.file 13 "Drivers/STM32F1xx_HAL_Driver/Inc/stm32f1xx_hal.h"
 478              		.file 14 "Core/Src/oled/../../Inc/oled/ssd1306_fonts.h"
 479              		.file 15 "Core/Src/oled/../../Inc/oled/ssd1306.h"
 480              		.file 16 "Core/Src/oled/../../Inc/oled/page_template.h"
 481              		.file 17 "Core/Src/oled/../../Inc/oled/oled_manager.h"
ARM GAS  /tmp/ccNW3NHN.s 			page 11

