ARM GAS  /tmp/ccB91Jp9.s 			page 1


   1              		.cpu cortex-m3
   2              		.eabi_attribute 20, 1
   3              		.eabi_attribute 21, 1
   4              		.eabi_attribute 23, 3
   5              		.eabi_attribute 24, 1
   6              		.eabi_attribute 25, 1
   7              		.eabi_attribute 26, 1
   8              		.eabi_attribute 30, 1
   9              		.eabi_attribute 34, 1
  10              		.eabi_attribute 18, 4
  11              		.file	"RGB.c"
  12              		.text
  13              	.Ltext0:
  14              		.cfi_sections	.debug_frame
  15              		.section	.text.WS2812_init,"ax",%progbits
  16              		.align	1
  17              		.global	WS2812_init
  18              		.arch armv7-m
  19              		.syntax unified
  20              		.thumb
  21              		.thumb_func
  22              		.fpu softvfp
  24              	WS2812_init:
  25              	.LVL0:
  26              	.LFB71:
  27              		.file 1 "Core/Src/RGB.c"
   1:Core/Src/RGB.c **** /*
   2:Core/Src/RGB.c ****  * RGB.c
   3:Core/Src/RGB.c ****  *
   4:Core/Src/RGB.c ****  *  Created on: Nov 2, 2021
   5:Core/Src/RGB.c ****  *      Author: luoshiheng
   6:Core/Src/RGB.c ****  */
   7:Core/Src/RGB.c **** #include "RGB.h"
   8:Core/Src/RGB.c **** #include "stdio.h"
   9:Core/Src/RGB.c **** #include "keyInterface.h"
  10:Core/Src/RGB.c **** #include "cmsis_os.h"
  11:Core/Src/RGB.c **** #include "led_page.h"
  12:Core/Src/RGB.c **** uint8_t datasentflag = 0;
  13:Core/Src/RGB.c **** WS2812 ws2812;
  14:Core/Src/RGB.c **** RGB defaultColorList[] = {WS2812_WHITE, WS2812_BLUE, WS2812_RED, WS2812_GREEN, WS2812_YELLOW, WS281
  15:Core/Src/RGB.c **** extern TIM_HandleTypeDef htim1;
  16:Core/Src/RGB.c **** extern uint32_t last_keyinterrupt_tick;
  17:Core/Src/RGB.c **** 
  18:Core/Src/RGB.c **** void WS2812_init(WS2812* ws, WS2812_InitStruct* stuc){
  28              		.loc 1 18 54 view -0
  29              		.cfi_startproc
  30              		@ args = 0, pretend = 0, frame = 0
  31              		@ frame_needed = 0, uses_anonymous_args = 0
  32              		@ link register save eliminated.
  19:Core/Src/RGB.c **** 	ws->tim 		= stuc->tim;
  33              		.loc 1 19 2 view .LVU1
  34              		.loc 1 19 18 is_stmt 0 view .LVU2
  35 0000 4B68     		ldr	r3, [r1, #4]
  36              		.loc 1 19 12 view .LVU3
  37 0002 4360     		str	r3, [r0, #4]
  20:Core/Src/RGB.c **** 	ws->channel 	= stuc->channel;
  38              		.loc 1 20 2 is_stmt 1 view .LVU4
ARM GAS  /tmp/ccB91Jp9.s 			page 2


  39              		.loc 1 20 21 is_stmt 0 view .LVU5
  40 0004 8B68     		ldr	r3, [r1, #8]
  41              		.loc 1 20 15 view .LVU6
  42 0006 8360     		str	r3, [r0, #8]
  21:Core/Src/RGB.c **** 	ws->LED_num 	= stuc->LED_num;
  43              		.loc 1 21 2 is_stmt 1 view .LVU7
  44              		.loc 1 21 21 is_stmt 0 view .LVU8
  45 0008 0B68     		ldr	r3, [r1]
  46              		.loc 1 21 15 view .LVU9
  47 000a 0360     		str	r3, [r0]
  22:Core/Src/RGB.c **** 	ws->brightness 	= 1;
  48              		.loc 1 22 2 is_stmt 1 view .LVU10
  49              		.loc 1 22 18 is_stmt 0 view .LVU11
  50 000c 0123     		movs	r3, #1
  51 000e 80F81437 		strb	r3, [r0, #1812]
  23:Core/Src/RGB.c **** }
  52              		.loc 1 23 1 view .LVU12
  53 0012 7047     		bx	lr
  54              		.cfi_endproc
  55              	.LFE71:
  57              		.section	.text.WS2812_Deinit,"ax",%progbits
  58              		.align	1
  59              		.global	WS2812_Deinit
  60              		.syntax unified
  61              		.thumb
  62              		.thumb_func
  63              		.fpu softvfp
  65              	WS2812_Deinit:
  66              	.LVL1:
  67              	.LFB72:
  24:Core/Src/RGB.c **** 
  25:Core/Src/RGB.c **** void WS2812_Deinit(WS2812* ws){
  68              		.loc 1 25 31 is_stmt 1 view -0
  69              		.cfi_startproc
  70              		@ args = 0, pretend = 0, frame = 0
  71              		@ frame_needed = 0, uses_anonymous_args = 0
  72              		@ link register save eliminated.
  26:Core/Src/RGB.c **** 
  27:Core/Src/RGB.c **** }
  73              		.loc 1 27 1 view .LVU14
  74 0000 7047     		bx	lr
  75              		.cfi_endproc
  76              	.LFE72:
  78              		.section	.text.WS2812_LED_SetBrightness,"ax",%progbits
  79              		.align	1
  80              		.global	WS2812_LED_SetBrightness
  81              		.syntax unified
  82              		.thumb
  83              		.thumb_func
  84              		.fpu softvfp
  86              	WS2812_LED_SetBrightness:
  87              	.LVL2:
  88              	.LFB73:
  28:Core/Src/RGB.c **** 
  29:Core/Src/RGB.c **** void WS2812_LED_SetBrightness(WS2812* ws, const uint8_t brightness){
  89              		.loc 1 29 68 view -0
  90              		.cfi_startproc
ARM GAS  /tmp/ccB91Jp9.s 			page 3


  91              		@ args = 0, pretend = 0, frame = 0
  92              		@ frame_needed = 0, uses_anonymous_args = 0
  93              		@ link register save eliminated.
  30:Core/Src/RGB.c **** 	ws->brightness = brightness;
  94              		.loc 1 30 2 view .LVU16
  95              		.loc 1 30 17 is_stmt 0 view .LVU17
  96 0000 80F81417 		strb	r1, [r0, #1812]
  31:Core/Src/RGB.c **** }
  97              		.loc 1 31 1 view .LVU18
  98 0004 7047     		bx	lr
  99              		.cfi_endproc
 100              	.LFE73:
 102              		.section	.text.WS2812_LED_Set,"ax",%progbits
 103              		.align	1
 104              		.global	WS2812_LED_Set
 105              		.syntax unified
 106              		.thumb
 107              		.thumb_func
 108              		.fpu softvfp
 110              	WS2812_LED_Set:
 111              	.LVL3:
 112              	.LFB74:
  32:Core/Src/RGB.c **** 
  33:Core/Src/RGB.c **** void WS2812_LED_Set(WS2812* ws, const uint32_t index, const uint8_t R, const uint8_t G, const uint8
 113              		.loc 1 33 105 is_stmt 1 view -0
 114              		.cfi_startproc
 115              		@ args = 4, pretend = 0, frame = 0
 116              		@ frame_needed = 0, uses_anonymous_args = 0
 117              		@ link register save eliminated.
 118              		.loc 1 33 105 is_stmt 0 view .LVU20
 119 0000 10B4     		push	{r4}
 120              	.LCFI0:
 121              		.cfi_def_cfa_offset 4
 122              		.cfi_offset 4, -4
  34:Core/Src/RGB.c **** 	if(index < 0 || index >= ws->LED_num) return;
 123              		.loc 1 34 2 is_stmt 1 view .LVU21
 124              		.loc 1 34 29 is_stmt 0 view .LVU22
 125 0002 0468     		ldr	r4, [r0]
 126              		.loc 1 34 4 view .LVU23
 127 0004 8C42     		cmp	r4, r1
 128 0006 16D9     		bls	.L4
  35:Core/Src/RGB.c **** 	ws->LED_Data[index][0] = index; // make index 0 stores brightness
 129              		.loc 1 35 2 is_stmt 1 view .LVU24
 130              		.loc 1 35 25 is_stmt 0 view .LVU25
 131 0008 01F5DA74 		add	r4, r1, #436
 132 000c 00EB8404 		add	r4, r0, r4, lsl #2
 133 0010 2171     		strb	r1, [r4, #4]
  36:Core/Src/RGB.c **** 	ws->LED_Data[index][1] = G / ws->brightness;
 134              		.loc 1 36 2 is_stmt 1 view .LVU26
 135              		.loc 1 36 33 is_stmt 0 view .LVU27
 136 0012 90F81447 		ldrb	r4, [r0, #1812]	@ zero_extendqisi2
 137              		.loc 1 36 25 view .LVU28
 138 0016 00EB8100 		add	r0, r0, r1, lsl #2
 139              	.LVL4:
 140              		.loc 1 36 25 view .LVU29
 141 001a B3FBF4F3 		udiv	r3, r3, r4
 142              	.LVL5:
ARM GAS  /tmp/ccB91Jp9.s 			page 4


 143              		.loc 1 36 25 view .LVU30
 144 001e 80F8D536 		strb	r3, [r0, #1749]
  37:Core/Src/RGB.c **** 	ws->LED_Data[index][2] = R / ws->brightness;
 145              		.loc 1 37 2 is_stmt 1 view .LVU31
 146              		.loc 1 37 25 is_stmt 0 view .LVU32
 147 0022 B2FBF4F2 		udiv	r2, r2, r4
 148              	.LVL6:
 149              		.loc 1 37 25 view .LVU33
 150 0026 80F8D626 		strb	r2, [r0, #1750]
  38:Core/Src/RGB.c **** 	ws->LED_Data[index][3] = B / ws->brightness;
 151              		.loc 1 38 2 is_stmt 1 view .LVU34
 152              		.loc 1 38 25 is_stmt 0 view .LVU35
 153 002a 9DF80430 		ldrb	r3, [sp, #4]	@ zero_extendqisi2
 154 002e B3FBF4F3 		udiv	r3, r3, r4
 155 0032 80F8D736 		strb	r3, [r0, #1751]
 156              	.L4:
  39:Core/Src/RGB.c **** }
 157              		.loc 1 39 1 view .LVU36
 158 0036 10BC     		pop	{r4}
 159              	.LCFI1:
 160              		.cfi_restore 4
 161              		.cfi_def_cfa_offset 0
 162              	.LVL7:
 163              		.loc 1 39 1 view .LVU37
 164 0038 7047     		bx	lr
 165              		.cfi_endproc
 166              	.LFE74:
 168              		.section	.text.WS2812_LED_SetRGB,"ax",%progbits
 169              		.align	1
 170              		.global	WS2812_LED_SetRGB
 171              		.syntax unified
 172              		.thumb
 173              		.thumb_func
 174              		.fpu softvfp
 176              	WS2812_LED_SetRGB:
 177              	.LVL8:
 178              	.LFB75:
  40:Core/Src/RGB.c **** 
  41:Core/Src/RGB.c **** void WS2812_LED_SetRGB(WS2812* ws, const uint32_t LED_index, const RGB rgb){
 179              		.loc 1 41 76 is_stmt 1 view -0
 180              		.cfi_startproc
 181              		@ args = 0, pretend = 0, frame = 8
 182              		@ frame_needed = 0, uses_anonymous_args = 0
 183              		.loc 1 41 76 is_stmt 0 view .LVU39
 184 0000 10B5     		push	{r4, lr}
 185              	.LCFI2:
 186              		.cfi_def_cfa_offset 8
 187              		.cfi_offset 4, -8
 188              		.cfi_offset 14, -4
 189 0002 84B0     		sub	sp, sp, #16
 190              	.LCFI3:
 191              		.cfi_def_cfa_offset 24
  42:Core/Src/RGB.c **** 	WS2812_LED_Set(ws, LED_index, rgb.R, rgb.G, rgb.B);
 192              		.loc 1 42 2 is_stmt 1 view .LVU40
 193 0004 C2F30744 		ubfx	r4, r2, #16, #8
 194 0008 0094     		str	r4, [sp]
 195 000a C2F30723 		ubfx	r3, r2, #8, #8
ARM GAS  /tmp/ccB91Jp9.s 			page 5


 196 000e D2B2     		uxtb	r2, r2
 197 0010 FFF7FEFF 		bl	WS2812_LED_Set
 198              	.LVL9:
  43:Core/Src/RGB.c **** }
 199              		.loc 1 43 1 is_stmt 0 view .LVU41
 200 0014 04B0     		add	sp, sp, #16
 201              	.LCFI4:
 202              		.cfi_def_cfa_offset 8
 203              		@ sp needed
 204 0016 10BD     		pop	{r4, pc}
 205              		.cfi_endproc
 206              	.LFE75:
 208              		.section	.text.WS2812_LED_ClearRGB,"ax",%progbits
 209              		.align	1
 210              		.global	WS2812_LED_ClearRGB
 211              		.syntax unified
 212              		.thumb
 213              		.thumb_func
 214              		.fpu softvfp
 216              	WS2812_LED_ClearRGB:
 217              	.LVL10:
 218              	.LFB76:
  44:Core/Src/RGB.c **** 
  45:Core/Src/RGB.c **** void WS2812_LED_ClearRGB(WS2812* ws, const uint32_t LED_index){
 219              		.loc 1 45 63 is_stmt 1 view -0
 220              		.cfi_startproc
 221              		@ args = 0, pretend = 0, frame = 8
 222              		@ frame_needed = 0, uses_anonymous_args = 0
 223              		.loc 1 45 63 is_stmt 0 view .LVU43
 224 0000 00B5     		push	{lr}
 225              	.LCFI5:
 226              		.cfi_def_cfa_offset 4
 227              		.cfi_offset 14, -4
 228 0002 83B0     		sub	sp, sp, #12
 229              	.LCFI6:
 230              		.cfi_def_cfa_offset 16
  46:Core/Src/RGB.c **** 	RGB color = rgb(0,0,0);
 231              		.loc 1 46 2 is_stmt 1 view .LVU44
 232              		.loc 1 46 6 is_stmt 0 view .LVU45
 233 0004 0023     		movs	r3, #0
 234 0006 8DF80430 		strb	r3, [sp, #4]
 235 000a 8DF80530 		strb	r3, [sp, #5]
 236 000e 8DF80630 		strb	r3, [sp, #6]
  47:Core/Src/RGB.c **** 	WS2812_LED_SetRGB(ws, LED_index, color);
 237              		.loc 1 47 2 is_stmt 1 view .LVU46
 238 0012 019A     		ldr	r2, [sp, #4]
 239 0014 FFF7FEFF 		bl	WS2812_LED_SetRGB
 240              	.LVL11:
  48:Core/Src/RGB.c **** }
 241              		.loc 1 48 1 is_stmt 0 view .LVU47
 242 0018 03B0     		add	sp, sp, #12
 243              	.LCFI7:
 244              		.cfi_def_cfa_offset 4
 245              		@ sp needed
 246 001a 5DF804FB 		ldr	pc, [sp], #4
 247              		.cfi_endproc
 248              	.LFE76:
ARM GAS  /tmp/ccB91Jp9.s 			page 6


 250              		.section	.text.HAL_TIM_PWM_PulseFinishedCallback,"ax",%progbits
 251              		.align	1
 252              		.global	HAL_TIM_PWM_PulseFinishedCallback
 253              		.syntax unified
 254              		.thumb
 255              		.thumb_func
 256              		.fpu softvfp
 258              	HAL_TIM_PWM_PulseFinishedCallback:
 259              	.LVL12:
 260              	.LFB77:
  49:Core/Src/RGB.c **** 
  50:Core/Src/RGB.c ****  void HAL_TIM_PWM_PulseFinishedCallback(TIM_HandleTypeDef *htim){
 261              		.loc 1 50 65 is_stmt 1 view -0
 262              		.cfi_startproc
 263              		@ args = 0, pretend = 0, frame = 0
 264              		@ frame_needed = 0, uses_anonymous_args = 0
 265              		.loc 1 50 65 is_stmt 0 view .LVU49
 266 0000 08B5     		push	{r3, lr}
 267              	.LCFI8:
 268              		.cfi_def_cfa_offset 8
 269              		.cfi_offset 3, -8
 270              		.cfi_offset 14, -4
  51:Core/Src/RGB.c ****  	HAL_TIM_PWM_Stop_DMA(&htim1, TIM_CHANNEL_1);
 271              		.loc 1 51 3 is_stmt 1 view .LVU50
 272 0002 0021     		movs	r1, #0
 273 0004 0348     		ldr	r0, .L13
 274              	.LVL13:
 275              		.loc 1 51 3 is_stmt 0 view .LVU51
 276 0006 FFF7FEFF 		bl	HAL_TIM_PWM_Stop_DMA
 277              	.LVL14:
  52:Core/Src/RGB.c ****  	datasentflag = 1;
 278              		.loc 1 52 3 is_stmt 1 view .LVU52
 279              		.loc 1 52 16 is_stmt 0 view .LVU53
 280 000a 034B     		ldr	r3, .L13+4
 281 000c 0122     		movs	r2, #1
 282 000e 1A70     		strb	r2, [r3]
  53:Core/Src/RGB.c ****  }
 283              		.loc 1 53 2 view .LVU54
 284 0010 08BD     		pop	{r3, pc}
 285              	.L14:
 286 0012 00BF     		.align	2
 287              	.L13:
 288 0014 00000000 		.word	htim1
 289 0018 00000000 		.word	.LANCHOR0
 290              		.cfi_endproc
 291              	.LFE77:
 293              		.section	.text.WS2812_sendData,"ax",%progbits
 294              		.align	1
 295              		.global	WS2812_sendData
 296              		.syntax unified
 297              		.thumb
 298              		.thumb_func
 299              		.fpu softvfp
 301              	WS2812_sendData:
 302              	.LVL15:
 303              	.LFB78:
  54:Core/Src/RGB.c **** 
ARM GAS  /tmp/ccB91Jp9.s 			page 7


  55:Core/Src/RGB.c **** void WS2812_sendData(WS2812* ws){
 304              		.loc 1 55 33 is_stmt 1 view -0
 305              		.cfi_startproc
 306              		@ args = 0, pretend = 0, frame = 0
 307              		@ frame_needed = 0, uses_anonymous_args = 0
 308              		.loc 1 55 33 is_stmt 0 view .LVU56
 309 0000 70B5     		push	{r4, r5, r6, lr}
 310              	.LCFI9:
 311              		.cfi_def_cfa_offset 16
 312              		.cfi_offset 4, -16
 313              		.cfi_offset 5, -12
 314              		.cfi_offset 6, -8
 315              		.cfi_offset 14, -4
 316 0002 0246     		mov	r2, r0
  56:Core/Src/RGB.c **** 	uint32_t index = 0;
 317              		.loc 1 56 2 is_stmt 1 view .LVU57
 318              	.LVL16:
  57:Core/Src/RGB.c **** 
  58:Core/Src/RGB.c **** 	for (uint8_t i = 0; i < MAX_LED; i++){
 319              		.loc 1 58 2 view .LVU58
 320              	.LBB2:
 321              		.loc 1 58 7 view .LVU59
 322              		.loc 1 58 15 is_stmt 0 view .LVU60
 323 0004 0020     		movs	r0, #0
 324              	.LVL17:
 325              		.loc 1 58 15 view .LVU61
 326              	.LBE2:
  56:Core/Src/RGB.c **** 	uint32_t index = 0;
 327              		.loc 1 56 11 view .LVU62
 328 0006 0346     		mov	r3, r0
 329              	.LBB7:
 330              		.loc 1 58 2 view .LVU63
 331 0008 15E0     		b	.L16
 332              	.LVL18:
 333              	.L18:
 334              	.LBB3:
 335              	.LBB4:
  59:Core/Src/RGB.c **** 		uint32_t color = ((ws->LED_Data[i][1] << 16) | (ws->LED_Data[i][2] << 8) | (ws->LED_Data[i][3]));
  60:Core/Src/RGB.c **** 
  61:Core/Src/RGB.c **** 		for (int8_t offset = 23; offset >= 0; offset--, index++){
  62:Core/Src/RGB.c **** 			if(color & (1 << offset)) ws->pwmData[index] = WS2812_ONECODE;
  63:Core/Src/RGB.c **** 			else ws->pwmData[index] = WS2812_ZEROCODE;
 336              		.loc 1 63 9 is_stmt 1 view .LVU64
 337              		.loc 1 63 28 is_stmt 0 view .LVU65
 338 000a 9C1C     		adds	r4, r3, #2
 339 000c 02EB8404 		add	r4, r2, r4, lsl #2
 340 0010 1026     		movs	r6, #16
 341 0012 6660     		str	r6, [r4, #4]
 342              	.L19:
  61:Core/Src/RGB.c **** 			if(color & (1 << offset)) ws->pwmData[index] = WS2812_ONECODE;
 343              		.loc 1 61 41 is_stmt 1 discriminator 2 view .LVU66
  61:Core/Src/RGB.c **** 			if(color & (1 << offset)) ws->pwmData[index] = WS2812_ONECODE;
 344              		.loc 1 61 47 is_stmt 0 discriminator 2 view .LVU67
 345 0014 0139     		subs	r1, r1, #1
 346              	.LVL19:
  61:Core/Src/RGB.c **** 			if(color & (1 << offset)) ws->pwmData[index] = WS2812_ONECODE;
 347              		.loc 1 61 47 discriminator 2 view .LVU68
ARM GAS  /tmp/ccB91Jp9.s 			page 8


 348 0016 49B2     		sxtb	r1, r1
 349              	.LVL20:
  61:Core/Src/RGB.c **** 			if(color & (1 << offset)) ws->pwmData[index] = WS2812_ONECODE;
 350              		.loc 1 61 56 discriminator 2 view .LVU69
 351 0018 0133     		adds	r3, r3, #1
 352              	.LVL21:
 353              	.L17:
  61:Core/Src/RGB.c **** 			if(color & (1 << offset)) ws->pwmData[index] = WS2812_ONECODE;
 354              		.loc 1 61 28 is_stmt 1 discriminator 1 view .LVU70
  61:Core/Src/RGB.c **** 			if(color & (1 << offset)) ws->pwmData[index] = WS2812_ONECODE;
 355              		.loc 1 61 3 is_stmt 0 discriminator 1 view .LVU71
 356 001a 0029     		cmp	r1, #0
 357 001c 09DB     		blt	.L26
  62:Core/Src/RGB.c **** 			else ws->pwmData[index] = WS2812_ZEROCODE;
 358              		.loc 1 62 4 is_stmt 1 view .LVU72
  62:Core/Src/RGB.c **** 			else ws->pwmData[index] = WS2812_ZEROCODE;
 359              		.loc 1 62 18 is_stmt 0 view .LVU73
 360 001e 0124     		movs	r4, #1
 361 0020 8C40     		lsls	r4, r4, r1
  62:Core/Src/RGB.c **** 			else ws->pwmData[index] = WS2812_ZEROCODE;
 362              		.loc 1 62 6 view .LVU74
 363 0022 2C42     		tst	r4, r5
 364 0024 F1D0     		beq	.L18
  62:Core/Src/RGB.c **** 			else ws->pwmData[index] = WS2812_ZEROCODE;
 365              		.loc 1 62 30 is_stmt 1 discriminator 1 view .LVU75
  62:Core/Src/RGB.c **** 			else ws->pwmData[index] = WS2812_ZEROCODE;
 366              		.loc 1 62 49 is_stmt 0 discriminator 1 view .LVU76
 367 0026 9C1C     		adds	r4, r3, #2
 368 0028 02EB8404 		add	r4, r2, r4, lsl #2
 369 002c 2026     		movs	r6, #32
 370 002e 6660     		str	r6, [r4, #4]
 371 0030 F0E7     		b	.L19
 372              	.L26:
  62:Core/Src/RGB.c **** 			else ws->pwmData[index] = WS2812_ZEROCODE;
 373              		.loc 1 62 49 discriminator 1 view .LVU77
 374              	.LBE4:
 375              	.LBE3:
  58:Core/Src/RGB.c **** 		uint32_t color = ((ws->LED_Data[i][1] << 16) | (ws->LED_Data[i][2] << 8) | (ws->LED_Data[i][3]));
 376              		.loc 1 58 35 is_stmt 1 discriminator 2 view .LVU78
  58:Core/Src/RGB.c **** 		uint32_t color = ((ws->LED_Data[i][1] << 16) | (ws->LED_Data[i][2] << 8) | (ws->LED_Data[i][3]));
 377              		.loc 1 58 36 is_stmt 0 discriminator 2 view .LVU79
 378 0032 0130     		adds	r0, r0, #1
 379              	.LVL22:
  58:Core/Src/RGB.c **** 		uint32_t color = ((ws->LED_Data[i][1] << 16) | (ws->LED_Data[i][2] << 8) | (ws->LED_Data[i][3]));
 380              		.loc 1 58 36 discriminator 2 view .LVU80
 381 0034 C0B2     		uxtb	r0, r0
 382              	.LVL23:
 383              	.L16:
  58:Core/Src/RGB.c **** 		uint32_t color = ((ws->LED_Data[i][1] << 16) | (ws->LED_Data[i][2] << 8) | (ws->LED_Data[i][3]));
 384              		.loc 1 58 22 is_stmt 1 discriminator 1 view .LVU81
  58:Core/Src/RGB.c **** 		uint32_t color = ((ws->LED_Data[i][1] << 16) | (ws->LED_Data[i][2] << 8) | (ws->LED_Data[i][3]));
 385              		.loc 1 58 2 is_stmt 0 discriminator 1 view .LVU82
 386 0036 0F28     		cmp	r0, #15
 387 0038 0DD8     		bhi	.L27
 388              	.LBB6:
  59:Core/Src/RGB.c **** 
 389              		.loc 1 59 3 is_stmt 1 view .LVU83
ARM GAS  /tmp/ccB91Jp9.s 			page 9


  59:Core/Src/RGB.c **** 
 390              		.loc 1 59 37 is_stmt 0 view .LVU84
 391 003a 02EB8001 		add	r1, r2, r0, lsl #2
 392 003e 91F8D546 		ldrb	r4, [r1, #1749]	@ zero_extendqisi2
  59:Core/Src/RGB.c **** 
 393              		.loc 1 59 66 view .LVU85
 394 0042 91F8D656 		ldrb	r5, [r1, #1750]	@ zero_extendqisi2
  59:Core/Src/RGB.c **** 
 395              		.loc 1 59 70 view .LVU86
 396 0046 2D02     		lsls	r5, r5, #8
  59:Core/Src/RGB.c **** 
 397              		.loc 1 59 48 view .LVU87
 398 0048 45EA0445 		orr	r5, r5, r4, lsl #16
  59:Core/Src/RGB.c **** 
 399              		.loc 1 59 94 view .LVU88
 400 004c 91F8D716 		ldrb	r1, [r1, #1751]	@ zero_extendqisi2
  59:Core/Src/RGB.c **** 
 401              		.loc 1 59 76 view .LVU89
 402 0050 0D43     		orrs	r5, r5, r1
 403              	.LVL24:
  61:Core/Src/RGB.c **** 			if(color & (1 << offset)) ws->pwmData[index] = WS2812_ONECODE;
 404              		.loc 1 61 3 is_stmt 1 view .LVU90
 405              	.LBB5:
  61:Core/Src/RGB.c **** 			if(color & (1 << offset)) ws->pwmData[index] = WS2812_ONECODE;
 406              		.loc 1 61 8 view .LVU91
  61:Core/Src/RGB.c **** 			if(color & (1 << offset)) ws->pwmData[index] = WS2812_ONECODE;
 407              		.loc 1 61 15 is_stmt 0 view .LVU92
 408 0052 1721     		movs	r1, #23
  61:Core/Src/RGB.c **** 			if(color & (1 << offset)) ws->pwmData[index] = WS2812_ONECODE;
 409              		.loc 1 61 3 view .LVU93
 410 0054 E1E7     		b	.L17
 411              	.LVL25:
 412              	.L27:
  61:Core/Src/RGB.c **** 			if(color & (1 << offset)) ws->pwmData[index] = WS2812_ONECODE;
 413              		.loc 1 61 3 view .LVU94
 414              	.LBE5:
 415              	.LBE6:
 416              	.LBE7:
 417              	.LBB8:
  64:Core/Src/RGB.c **** 		}
  65:Core/Src/RGB.c **** 	}
  66:Core/Src/RGB.c **** 
  67:Core/Src/RGB.c **** 	for (uint8_t i = 0; i < RESET_TIMEOUT; index++, i++)
 418              		.loc 1 67 15 view .LVU95
 419 0056 0021     		movs	r1, #0
 420 0058 07E0     		b	.L22
 421              	.LVL26:
 422              	.L23:
  68:Core/Src/RGB.c **** 		ws->pwmData[index] = 0;
 423              		.loc 1 68 3 is_stmt 1 discriminator 3 view .LVU96
 424              		.loc 1 68 22 is_stmt 0 discriminator 3 view .LVU97
 425 005a 981C     		adds	r0, r3, #2
 426 005c 02EB8000 		add	r0, r2, r0, lsl #2
 427 0060 0024     		movs	r4, #0
 428 0062 4460     		str	r4, [r0, #4]
  67:Core/Src/RGB.c **** 		ws->pwmData[index] = 0;
 429              		.loc 1 67 41 is_stmt 1 discriminator 3 view .LVU98
ARM GAS  /tmp/ccB91Jp9.s 			page 10


  67:Core/Src/RGB.c **** 		ws->pwmData[index] = 0;
 430              		.loc 1 67 46 is_stmt 0 discriminator 3 view .LVU99
 431 0064 0133     		adds	r3, r3, #1
 432              	.LVL27:
  67:Core/Src/RGB.c **** 		ws->pwmData[index] = 0;
 433              		.loc 1 67 51 discriminator 3 view .LVU100
 434 0066 0131     		adds	r1, r1, #1
 435              	.LVL28:
  67:Core/Src/RGB.c **** 		ws->pwmData[index] = 0;
 436              		.loc 1 67 51 discriminator 3 view .LVU101
 437 0068 C9B2     		uxtb	r1, r1
 438              	.LVL29:
 439              	.L22:
  67:Core/Src/RGB.c **** 		ws->pwmData[index] = 0;
 440              		.loc 1 67 22 is_stmt 1 discriminator 1 view .LVU102
  67:Core/Src/RGB.c **** 		ws->pwmData[index] = 0;
 441              		.loc 1 67 2 is_stmt 0 discriminator 1 view .LVU103
 442 006a 3129     		cmp	r1, #49
 443 006c F5D9     		bls	.L23
  67:Core/Src/RGB.c **** 		ws->pwmData[index] = 0;
 444              		.loc 1 67 2 discriminator 1 view .LVU104
 445              	.LBE8:
  69:Core/Src/RGB.c **** 
  70:Core/Src/RGB.c **** 	HAL_TIM_PWM_Start_DMA(&htim1, TIM_CHANNEL_1, ws->pwmData, index);
 446              		.loc 1 70 2 is_stmt 1 view .LVU105
 447 006e 9BB2     		uxth	r3, r3
 448              	.LVL30:
 449              		.loc 1 70 2 is_stmt 0 view .LVU106
 450 0070 0C32     		adds	r2, r2, #12
 451              	.LVL31:
 452              		.loc 1 70 2 view .LVU107
 453 0072 0021     		movs	r1, #0
 454              	.LVL32:
 455              		.loc 1 70 2 view .LVU108
 456 0074 0548     		ldr	r0, .L28
 457 0076 FFF7FEFF 		bl	HAL_TIM_PWM_Start_DMA
 458              	.LVL33:
  71:Core/Src/RGB.c **** 	while (!datasentflag){};
 459              		.loc 1 71 2 is_stmt 1 view .LVU109
 460              	.L24:
 461              		.loc 1 71 24 discriminator 1 view .LVU110
 462              		.loc 1 71 8 discriminator 1 view .LVU111
 463              		.loc 1 71 9 is_stmt 0 discriminator 1 view .LVU112
 464 007a 054B     		ldr	r3, .L28+4
 465 007c 1B78     		ldrb	r3, [r3]	@ zero_extendqisi2
 466              		.loc 1 71 8 discriminator 1 view .LVU113
 467 007e 002B     		cmp	r3, #0
 468 0080 FBD0     		beq	.L24
 469              		.loc 1 71 25 is_stmt 1 discriminator 2 view .LVU114
  72:Core/Src/RGB.c **** 	datasentflag = 0;
 470              		.loc 1 72 2 discriminator 2 view .LVU115
 471              		.loc 1 72 15 is_stmt 0 discriminator 2 view .LVU116
 472 0082 034B     		ldr	r3, .L28+4
 473 0084 0022     		movs	r2, #0
 474 0086 1A70     		strb	r2, [r3]
  73:Core/Src/RGB.c **** }
 475              		.loc 1 73 1 discriminator 2 view .LVU117
ARM GAS  /tmp/ccB91Jp9.s 			page 11


 476 0088 70BD     		pop	{r4, r5, r6, pc}
 477              	.L29:
 478 008a 00BF     		.align	2
 479              	.L28:
 480 008c 00000000 		.word	htim1
 481 0090 00000000 		.word	.LANCHOR0
 482              		.cfi_endproc
 483              	.LFE78:
 485              		.section	.text.WS2812_LoopTask,"ax",%progbits
 486              		.align	1
 487              		.global	WS2812_LoopTask
 488              		.syntax unified
 489              		.thumb
 490              		.thumb_func
 491              		.fpu softvfp
 493              	WS2812_LoopTask:
 494              	.LVL34:
 495              	.LFB79:
  74:Core/Src/RGB.c **** 
  75:Core/Src/RGB.c **** void WS2812_LoopTask(WS2812* ws){
 496              		.loc 1 75 33 is_stmt 1 view -0
 497              		.cfi_startproc
 498              		@ Volatile: function does not return.
 499              		@ args = 0, pretend = 0, frame = 0
 500              		@ frame_needed = 0, uses_anonymous_args = 0
 501              		.loc 1 75 33 is_stmt 0 view .LVU119
 502 0000 08B5     		push	{r3, lr}
 503              	.LCFI10:
 504              		.cfi_def_cfa_offset 8
 505              		.cfi_offset 3, -8
 506              		.cfi_offset 14, -4
 507 0002 0446     		mov	r4, r0
  76:Core/Src/RGB.c **** 	static uint32_t color_index = 0;
 508              		.loc 1 76 2 is_stmt 1 view .LVU120
  77:Core/Src/RGB.c **** 	static uint32_t counter = 0;
 509              		.loc 1 77 2 view .LVU121
  78:Core/Src/RGB.c **** 	static uint32_t led_index = 0;
 510              		.loc 1 78 2 view .LVU122
  79:Core/Src/RGB.c **** 	WS2812_LED_SetBrightness(ws, 50);
 511              		.loc 1 79 2 view .LVU123
 512 0004 3221     		movs	r1, #50
 513 0006 FFF7FEFF 		bl	WS2812_LED_SetBrightness
 514              	.LVL35:
 515              		.loc 1 79 2 is_stmt 0 view .LVU124
 516 000a 21E0     		b	.L33
 517              	.L35:
  80:Core/Src/RGB.c **** 
  81:Core/Src/RGB.c **** 	for(;;){
  82:Core/Src/RGB.c **** 		led_index = counter++;
  83:Core/Src/RGB.c **** 		if(led_index == ws->LED_num) {
  84:Core/Src/RGB.c **** 			color_index++;
 518              		.loc 1 84 4 is_stmt 1 view .LVU125
 519              		.loc 1 84 15 is_stmt 0 view .LVU126
 520 000c 194A     		ldr	r2, .L36
 521 000e 1368     		ldr	r3, [r2]
 522 0010 0133     		adds	r3, r3, #1
 523 0012 1360     		str	r3, [r2]
ARM GAS  /tmp/ccB91Jp9.s 			page 12


  85:Core/Src/RGB.c **** 			led_index = 0;
 524              		.loc 1 85 4 is_stmt 1 view .LVU127
 525              		.loc 1 85 14 is_stmt 0 view .LVU128
 526 0014 0023     		movs	r3, #0
 527 0016 184A     		ldr	r2, .L36+4
 528 0018 1360     		str	r3, [r2]
  86:Core/Src/RGB.c **** 			counter = 0;
 529              		.loc 1 86 4 is_stmt 1 view .LVU129
 530              		.loc 1 86 12 is_stmt 0 view .LVU130
 531 001a 184A     		ldr	r2, .L36+8
 532 001c 1360     		str	r3, [r2]
 533 001e 20E0     		b	.L31
 534              	.L32:
  87:Core/Src/RGB.c **** 		}
  88:Core/Src/RGB.c **** 		if(color_index == sizeof(defaultColorList)/sizeof(RGB))
  89:Core/Src/RGB.c **** 			color_index = 0;
  90:Core/Src/RGB.c **** 
  91:Core/Src/RGB.c **** 		WS2812_LED_SetRGB(ws, led_index, defaultColorList[color_index]);
 535              		.loc 1 91 3 is_stmt 1 view .LVU131
 536 0020 174A     		ldr	r2, .L36+12
 537 0022 144B     		ldr	r3, .L36
 538 0024 1B68     		ldr	r3, [r3]
 539 0026 03EB4303 		add	r3, r3, r3, lsl #1
 540 002a D118     		adds	r1, r2, r3
 541 002c D35C     		ldrb	r3, [r2, r3]	@ zero_extendqisi2
 542 002e 4A78     		ldrb	r2, [r1, #1]	@ zero_extendqisi2
 543 0030 43EA0223 		orr	r3, r3, r2, lsl #8
 544 0034 8A78     		ldrb	r2, [r1, #2]	@ zero_extendqisi2
 545 0036 43EA0242 		orr	r2, r3, r2, lsl #16
 546 003a 0F4B     		ldr	r3, .L36+4
 547 003c 1968     		ldr	r1, [r3]
 548 003e 2046     		mov	r0, r4
 549 0040 FFF7FEFF 		bl	WS2812_LED_SetRGB
 550              	.LVL36:
  92:Core/Src/RGB.c **** 		WS2812_sendData(ws);
 551              		.loc 1 92 3 view .LVU132
 552 0044 2046     		mov	r0, r4
 553 0046 FFF7FEFF 		bl	WS2812_sendData
 554              	.LVL37:
  93:Core/Src/RGB.c **** 		osDelay(40);
 555              		.loc 1 93 3 view .LVU133
 556 004a 2820     		movs	r0, #40
 557 004c FFF7FEFF 		bl	osDelay
 558              	.LVL38:
  81:Core/Src/RGB.c **** 		led_index = counter++;
 559              		.loc 1 81 7 view .LVU134
 560              	.L33:
  81:Core/Src/RGB.c **** 		led_index = counter++;
 561              		.loc 1 81 2 view .LVU135
  82:Core/Src/RGB.c **** 		if(led_index == ws->LED_num) {
 562              		.loc 1 82 3 view .LVU136
  82:Core/Src/RGB.c **** 		if(led_index == ws->LED_num) {
 563              		.loc 1 82 22 is_stmt 0 view .LVU137
 564 0050 0A4A     		ldr	r2, .L36+8
 565 0052 1368     		ldr	r3, [r2]
 566 0054 591C     		adds	r1, r3, #1
 567 0056 1160     		str	r1, [r2]
ARM GAS  /tmp/ccB91Jp9.s 			page 13


  82:Core/Src/RGB.c **** 		if(led_index == ws->LED_num) {
 568              		.loc 1 82 13 view .LVU138
 569 0058 074A     		ldr	r2, .L36+4
 570 005a 1360     		str	r3, [r2]
  83:Core/Src/RGB.c **** 			color_index++;
 571              		.loc 1 83 3 is_stmt 1 view .LVU139
  83:Core/Src/RGB.c **** 			color_index++;
 572              		.loc 1 83 21 is_stmt 0 view .LVU140
 573 005c 2268     		ldr	r2, [r4]
  83:Core/Src/RGB.c **** 			color_index++;
 574              		.loc 1 83 5 view .LVU141
 575 005e 9342     		cmp	r3, r2
 576 0060 D4D0     		beq	.L35
 577              	.L31:
  88:Core/Src/RGB.c **** 			color_index = 0;
 578              		.loc 1 88 3 is_stmt 1 view .LVU142
  88:Core/Src/RGB.c **** 			color_index = 0;
 579              		.loc 1 88 18 is_stmt 0 view .LVU143
 580 0062 044B     		ldr	r3, .L36
 581 0064 1B68     		ldr	r3, [r3]
  88:Core/Src/RGB.c **** 			color_index = 0;
 582              		.loc 1 88 5 view .LVU144
 583 0066 0A2B     		cmp	r3, #10
 584 0068 DAD1     		bne	.L32
  89:Core/Src/RGB.c **** 
 585              		.loc 1 89 4 is_stmt 1 view .LVU145
  89:Core/Src/RGB.c **** 
 586              		.loc 1 89 16 is_stmt 0 view .LVU146
 587 006a 024B     		ldr	r3, .L36
 588 006c 0022     		movs	r2, #0
 589 006e 1A60     		str	r2, [r3]
 590 0070 D6E7     		b	.L32
 591              	.L37:
 592 0072 00BF     		.align	2
 593              	.L36:
 594 0074 00000000 		.word	.LANCHOR3
 595 0078 00000000 		.word	.LANCHOR2
 596 007c 00000000 		.word	.LANCHOR1
 597 0080 00000000 		.word	.LANCHOR4
 598              		.cfi_endproc
 599              	.LFE79:
 601              		.section	.text.WS2812_BreathTask,"ax",%progbits
 602              		.align	1
 603              		.global	WS2812_BreathTask
 604              		.syntax unified
 605              		.thumb
 606              		.thumb_func
 607              		.fpu softvfp
 609              	WS2812_BreathTask:
 610              	.LVL39:
 611              	.LFB80:
  94:Core/Src/RGB.c **** 	}
  95:Core/Src/RGB.c **** }
  96:Core/Src/RGB.c **** 
  97:Core/Src/RGB.c **** void WS2812_BreathTask(WS2812* ws){
 612              		.loc 1 97 35 is_stmt 1 view -0
 613              		.cfi_startproc
ARM GAS  /tmp/ccB91Jp9.s 			page 14


 614              		@ Volatile: function does not return.
 615              		@ args = 0, pretend = 0, frame = 0
 616              		@ frame_needed = 0, uses_anonymous_args = 0
 617              		.loc 1 97 35 is_stmt 0 view .LVU148
 618 0000 08B5     		push	{r3, lr}
 619              	.LCFI11:
 620              		.cfi_def_cfa_offset 8
 621              		.cfi_offset 3, -8
 622              		.cfi_offset 14, -4
 623 0002 0446     		mov	r4, r0
  98:Core/Src/RGB.c **** 	static int32_t led_index = 0;
 624              		.loc 1 98 2 is_stmt 1 view .LVU149
  99:Core/Src/RGB.c **** 	static int8_t step = 1;
 625              		.loc 1 99 2 view .LVU150
 100:Core/Src/RGB.c **** 	static int32_t color_index = 0;
 626              		.loc 1 100 2 view .LVU151
 101:Core/Src/RGB.c **** 	WS2812_LED_SetBrightness(ws, 30);
 627              		.loc 1 101 2 view .LVU152
 628 0004 1E21     		movs	r1, #30
 629 0006 FFF7FEFF 		bl	WS2812_LED_SetBrightness
 630              	.LVL40:
 631              		.loc 1 101 2 is_stmt 0 view .LVU153
 632 000a 38E0     		b	.L41
 633              	.L43:
 102:Core/Src/RGB.c **** 
 103:Core/Src/RGB.c **** 	for(;;){
 104:Core/Src/RGB.c **** 
 105:Core/Src/RGB.c **** 		if(step == 1){
 106:Core/Src/RGB.c **** 			WS2812_LED_SetRGB(ws, led_index, defaultColorList[color_index]);
 634              		.loc 1 106 4 is_stmt 1 view .LVU154
 635 000c 264A     		ldr	r2, .L45
 636 000e 274B     		ldr	r3, .L45+4
 637 0010 1B68     		ldr	r3, [r3]
 638 0012 03EB4303 		add	r3, r3, r3, lsl #1
 639 0016 D118     		adds	r1, r2, r3
 640 0018 254D     		ldr	r5, .L45+8
 641 001a D35C     		ldrb	r3, [r2, r3]	@ zero_extendqisi2
 642 001c 4A78     		ldrb	r2, [r1, #1]	@ zero_extendqisi2
 643 001e 43EA0223 		orr	r3, r3, r2, lsl #8
 644 0022 8A78     		ldrb	r2, [r1, #2]	@ zero_extendqisi2
 645 0024 43EA0242 		orr	r2, r3, r2, lsl #16
 646 0028 2968     		ldr	r1, [r5]
 647 002a 2046     		mov	r0, r4
 648 002c FFF7FEFF 		bl	WS2812_LED_SetRGB
 649              	.LVL41:
 107:Core/Src/RGB.c **** 			if(led_index > ws->LED_num-1) step = -1;
 650              		.loc 1 107 4 view .LVU155
 651              		.loc 1 107 21 is_stmt 0 view .LVU156
 652 0030 2368     		ldr	r3, [r4]
 653              		.loc 1 107 30 view .LVU157
 654 0032 013B     		subs	r3, r3, #1
 655              		.loc 1 107 17 view .LVU158
 656 0034 2A68     		ldr	r2, [r5]
 657              		.loc 1 107 6 view .LVU159
 658 0036 9342     		cmp	r3, r2
 659 0038 26D2     		bcs	.L39
 660              		.loc 1 107 34 is_stmt 1 discriminator 1 view .LVU160
ARM GAS  /tmp/ccB91Jp9.s 			page 15


 661              		.loc 1 107 39 is_stmt 0 discriminator 1 view .LVU161
 662 003a 1E4B     		ldr	r3, .L45+12
 663 003c FF22     		movs	r2, #255
 664 003e 1A70     		strb	r2, [r3]
 665 0040 22E0     		b	.L39
 666              	.L44:
 108:Core/Src/RGB.c **** 		}
 109:Core/Src/RGB.c **** 		if(step == -1){
 110:Core/Src/RGB.c **** 			WS2812_LED_ClearRGB(ws, led_index);
 111:Core/Src/RGB.c **** 			if(led_index < 0){
 112:Core/Src/RGB.c **** 				step = 1;
 667              		.loc 1 112 5 is_stmt 1 view .LVU162
 668              		.loc 1 112 10 is_stmt 0 view .LVU163
 669 0042 1C4B     		ldr	r3, .L45+12
 670 0044 0122     		movs	r2, #1
 671 0046 1A70     		strb	r2, [r3]
 113:Core/Src/RGB.c **** 				color_index++;
 672              		.loc 1 113 5 is_stmt 1 view .LVU164
 673              		.loc 1 113 16 is_stmt 0 view .LVU165
 674 0048 1848     		ldr	r0, .L45+4
 675 004a 0368     		ldr	r3, [r0]
 676 004c 1344     		add	r3, r3, r2
 114:Core/Src/RGB.c **** 				color_index %= 10;
 677              		.loc 1 114 5 is_stmt 1 view .LVU166
 678              		.loc 1 114 17 is_stmt 0 view .LVU167
 679 004e 1A49     		ldr	r1, .L45+16
 680 0050 81FB0321 		smull	r2, r1, r1, r3
 681 0054 DA17     		asrs	r2, r3, #31
 682 0056 C2EBA102 		rsb	r2, r2, r1, asr #2
 683 005a 02EB8202 		add	r2, r2, r2, lsl #2
 684 005e A3EB4203 		sub	r3, r3, r2, lsl #1
 685 0062 0360     		str	r3, [r0]
 686              	.L40:
 115:Core/Src/RGB.c **** 			}
 116:Core/Src/RGB.c **** 		}
 117:Core/Src/RGB.c **** 
 118:Core/Src/RGB.c **** 		WS2812_sendData(ws);
 687              		.loc 1 118 3 is_stmt 1 view .LVU168
 688 0064 2046     		mov	r0, r4
 689 0066 FFF7FEFF 		bl	WS2812_sendData
 690              	.LVL42:
 119:Core/Src/RGB.c **** 		led_index += step;
 691              		.loc 1 119 3 view .LVU169
 692              		.loc 1 119 13 is_stmt 0 view .LVU170
 693 006a 114A     		ldr	r2, .L45+8
 694 006c 114B     		ldr	r3, .L45+12
 695 006e 93F90030 		ldrsb	r3, [r3]
 696 0072 1168     		ldr	r1, [r2]
 697 0074 0B44     		add	r3, r3, r1
 698 0076 1360     		str	r3, [r2]
 120:Core/Src/RGB.c **** 		osDelay(60);
 699              		.loc 1 120 3 is_stmt 1 view .LVU171
 700 0078 3C20     		movs	r0, #60
 701 007a FFF7FEFF 		bl	osDelay
 702              	.LVL43:
 103:Core/Src/RGB.c **** 
 703              		.loc 1 103 7 view .LVU172
ARM GAS  /tmp/ccB91Jp9.s 			page 16


 704              	.L41:
 103:Core/Src/RGB.c **** 
 705              		.loc 1 103 2 view .LVU173
 105:Core/Src/RGB.c **** 			WS2812_LED_SetRGB(ws, led_index, defaultColorList[color_index]);
 706              		.loc 1 105 3 view .LVU174
 105:Core/Src/RGB.c **** 			WS2812_LED_SetRGB(ws, led_index, defaultColorList[color_index]);
 707              		.loc 1 105 11 is_stmt 0 view .LVU175
 708 007e 0D4B     		ldr	r3, .L45+12
 709 0080 93F90030 		ldrsb	r3, [r3]
 105:Core/Src/RGB.c **** 			WS2812_LED_SetRGB(ws, led_index, defaultColorList[color_index]);
 710              		.loc 1 105 5 view .LVU176
 711 0084 012B     		cmp	r3, #1
 712 0086 C1D0     		beq	.L43
 713              	.L39:
 109:Core/Src/RGB.c **** 			WS2812_LED_ClearRGB(ws, led_index);
 714              		.loc 1 109 3 is_stmt 1 view .LVU177
 109:Core/Src/RGB.c **** 			WS2812_LED_ClearRGB(ws, led_index);
 715              		.loc 1 109 11 is_stmt 0 view .LVU178
 716 0088 0A4B     		ldr	r3, .L45+12
 717 008a 93F90030 		ldrsb	r3, [r3]
 109:Core/Src/RGB.c **** 			WS2812_LED_ClearRGB(ws, led_index);
 718              		.loc 1 109 5 view .LVU179
 719 008e B3F1FF3F 		cmp	r3, #-1
 720 0092 E7D1     		bne	.L40
 110:Core/Src/RGB.c **** 			if(led_index < 0){
 721              		.loc 1 110 4 is_stmt 1 view .LVU180
 722 0094 064D     		ldr	r5, .L45+8
 723 0096 2968     		ldr	r1, [r5]
 724 0098 2046     		mov	r0, r4
 725 009a FFF7FEFF 		bl	WS2812_LED_ClearRGB
 726              	.LVL44:
 111:Core/Src/RGB.c **** 				step = 1;
 727              		.loc 1 111 4 view .LVU181
 111:Core/Src/RGB.c **** 				step = 1;
 728              		.loc 1 111 17 is_stmt 0 view .LVU182
 729 009e 2B68     		ldr	r3, [r5]
 111:Core/Src/RGB.c **** 				step = 1;
 730              		.loc 1 111 6 view .LVU183
 731 00a0 002B     		cmp	r3, #0
 732 00a2 DFDA     		bge	.L40
 733 00a4 CDE7     		b	.L44
 734              	.L46:
 735 00a6 00BF     		.align	2
 736              	.L45:
 737 00a8 00000000 		.word	.LANCHOR4
 738 00ac 00000000 		.word	.LANCHOR6
 739 00b0 00000000 		.word	.LANCHOR7
 740 00b4 00000000 		.word	.LANCHOR5
 741 00b8 67666666 		.word	1717986919
 742              		.cfi_endproc
 743              	.LFE80:
 745              		.section	.text.WS2812_StaticTask,"ax",%progbits
 746              		.align	1
 747              		.global	WS2812_StaticTask
 748              		.syntax unified
 749              		.thumb
 750              		.thumb_func
ARM GAS  /tmp/ccB91Jp9.s 			page 17


 751              		.fpu softvfp
 753              	WS2812_StaticTask:
 754              	.LVL45:
 755              	.LFB81:
 121:Core/Src/RGB.c **** 	}
 122:Core/Src/RGB.c **** }
 123:Core/Src/RGB.c **** 
 124:Core/Src/RGB.c **** void WS2812_StaticTask(WS2812* ws){
 756              		.loc 1 124 35 is_stmt 1 view -0
 757              		.cfi_startproc
 758              		@ args = 0, pretend = 0, frame = 64
 759              		@ frame_needed = 0, uses_anonymous_args = 0
 760              		.loc 1 124 35 is_stmt 0 view .LVU185
 761 0000 30B5     		push	{r4, r5, lr}
 762              	.LCFI12:
 763              		.cfi_def_cfa_offset 12
 764              		.cfi_offset 4, -12
 765              		.cfi_offset 5, -8
 766              		.cfi_offset 14, -4
 767 0002 91B0     		sub	sp, sp, #68
 768              	.LCFI13:
 769              		.cfi_def_cfa_offset 80
 770 0004 0446     		mov	r4, r0
 125:Core/Src/RGB.c **** 	WS2812_LED_SetBrightness(ws, 30);
 771              		.loc 1 125 2 is_stmt 1 view .LVU186
 772 0006 1E21     		movs	r1, #30
 773 0008 FFF7FEFF 		bl	WS2812_LED_SetBrightness
 774              	.LVL46:
 126:Core/Src/RGB.c **** 	uint32_t data[MAX_LED];
 775              		.loc 1 126 2 view .LVU187
 127:Core/Src/RGB.c **** 	Flash_Read_Data (LED_START_ADDR, &data, MAX_LED);	
 776              		.loc 1 127 2 view .LVU188
 777 000c 1022     		movs	r2, #16
 778 000e 6946     		mov	r1, sp
 779 0010 1148     		ldr	r0, .L55
 780 0012 FFF7FEFF 		bl	Flash_Read_Data
 781              	.LVL47:
 128:Core/Src/RGB.c **** 	for(int i = 0; i < MAX_LED; i++){
 782              		.loc 1 128 2 view .LVU189
 783              	.LBB9:
 784              		.loc 1 128 6 view .LVU190
 785              		.loc 1 128 10 is_stmt 0 view .LVU191
 786 0016 0020     		movs	r0, #0
 787              		.loc 1 128 2 view .LVU192
 788 0018 0BE0     		b	.L48
 789              	.LVL48:
 790              	.L51:
 791              	.LBB10:
 129:Core/Src/RGB.c **** 		if(data[i] == 0xFFFFFFFF) continue;
 130:Core/Src/RGB.c **** 		for(int j = 0; j < SELECTION; j++){
 131:Core/Src/RGB.c **** 			ws->LED_Data[i][j] = (uint8_t)(data[i] >> (8 * j));
 792              		.loc 1 131 4 is_stmt 1 discriminator 3 view .LVU193
 793              		.loc 1 131 49 is_stmt 0 discriminator 3 view .LVU194
 794 001a D900     		lsls	r1, r3, #3
 795              		.loc 1 131 43 discriminator 3 view .LVU195
 796 001c 25FA01F1 		lsr	r1, r5, r1
 797              		.loc 1 131 23 discriminator 3 view .LVU196
ARM GAS  /tmp/ccB91Jp9.s 			page 18


 798 0020 04EB8002 		add	r2, r4, r0, lsl #2
 799 0024 1A44     		add	r2, r2, r3
 800 0026 82F8D416 		strb	r1, [r2, #1748]
 130:Core/Src/RGB.c **** 			ws->LED_Data[i][j] = (uint8_t)(data[i] >> (8 * j));
 801              		.loc 1 130 33 is_stmt 1 discriminator 3 view .LVU197
 130:Core/Src/RGB.c **** 			ws->LED_Data[i][j] = (uint8_t)(data[i] >> (8 * j));
 802              		.loc 1 130 34 is_stmt 0 discriminator 3 view .LVU198
 803 002a 0133     		adds	r3, r3, #1
 804              	.LVL49:
 805              	.L50:
 130:Core/Src/RGB.c **** 			ws->LED_Data[i][j] = (uint8_t)(data[i] >> (8 * j));
 806              		.loc 1 130 18 is_stmt 1 discriminator 1 view .LVU199
 130:Core/Src/RGB.c **** 			ws->LED_Data[i][j] = (uint8_t)(data[i] >> (8 * j));
 807              		.loc 1 130 3 is_stmt 0 discriminator 1 view .LVU200
 808 002c 032B     		cmp	r3, #3
 809 002e F4DD     		ble	.L51
 810              	.LVL50:
 811              	.L49:
 130:Core/Src/RGB.c **** 			ws->LED_Data[i][j] = (uint8_t)(data[i] >> (8 * j));
 812              		.loc 1 130 3 discriminator 1 view .LVU201
 813              	.LBE10:
 128:Core/Src/RGB.c **** 	for(int i = 0; i < MAX_LED; i++){
 814              		.loc 1 128 30 is_stmt 1 discriminator 2 view .LVU202
 128:Core/Src/RGB.c **** 	for(int i = 0; i < MAX_LED; i++){
 815              		.loc 1 128 31 is_stmt 0 discriminator 2 view .LVU203
 816 0030 0130     		adds	r0, r0, #1
 817              	.LVL51:
 818              	.L48:
 128:Core/Src/RGB.c **** 	for(int i = 0; i < MAX_LED; i++){
 819              		.loc 1 128 17 is_stmt 1 discriminator 1 view .LVU204
 128:Core/Src/RGB.c **** 	for(int i = 0; i < MAX_LED; i++){
 820              		.loc 1 128 2 is_stmt 0 discriminator 1 view .LVU205
 821 0032 0F28     		cmp	r0, #15
 822 0034 09DC     		bgt	.L53
 129:Core/Src/RGB.c **** 		if(data[i] == 0xFFFFFFFF) continue;
 823              		.loc 1 129 3 is_stmt 1 view .LVU206
 129:Core/Src/RGB.c **** 		if(data[i] == 0xFFFFFFFF) continue;
 824              		.loc 1 129 10 is_stmt 0 view .LVU207
 825 0036 10AB     		add	r3, sp, #64
 826 0038 03EB8003 		add	r3, r3, r0, lsl #2
 827 003c 53F8405C 		ldr	r5, [r3, #-64]
 129:Core/Src/RGB.c **** 		if(data[i] == 0xFFFFFFFF) continue;
 828              		.loc 1 129 5 view .LVU208
 829 0040 B5F1FF3F 		cmp	r5, #-1
 830 0044 F4D0     		beq	.L49
 831              	.LBB11:
 130:Core/Src/RGB.c **** 			ws->LED_Data[i][j] = (uint8_t)(data[i] >> (8 * j));
 832              		.loc 1 130 11 view .LVU209
 833 0046 0023     		movs	r3, #0
 834 0048 F0E7     		b	.L50
 835              	.LVL52:
 836              	.L53:
 130:Core/Src/RGB.c **** 			ws->LED_Data[i][j] = (uint8_t)(data[i] >> (8 * j));
 837              		.loc 1 130 11 view .LVU210
 838              	.LBE11:
 839              	.LBE9:
 132:Core/Src/RGB.c **** 		}
ARM GAS  /tmp/ccB91Jp9.s 			page 19


 133:Core/Src/RGB.c **** 	}
 134:Core/Src/RGB.c **** 	for(;;){
 840              		.loc 1 134 2 is_stmt 1 discriminator 1 view .LVU211
 135:Core/Src/RGB.c **** 		WS2812_sendData(ws);
 841              		.loc 1 135 3 discriminator 1 view .LVU212
 842 004a 2046     		mov	r0, r4
 843 004c FFF7FEFF 		bl	WS2812_sendData
 844              	.LVL53:
 136:Core/Src/RGB.c **** 		osDelay(10);
 845              		.loc 1 136 3 discriminator 1 view .LVU213
 846 0050 0A20     		movs	r0, #10
 847 0052 FFF7FEFF 		bl	osDelay
 848              	.LVL54:
 134:Core/Src/RGB.c **** 		WS2812_sendData(ws);
 849              		.loc 1 134 7 discriminator 1 view .LVU214
 850 0056 F8E7     		b	.L53
 851              	.L56:
 852              		.align	2
 853              	.L55:
 854 0058 00D80708 		.word	134731776
 855              		.cfi_endproc
 856              	.LFE81:
 858              		.section	.text.WS2812_Disable,"ax",%progbits
 859              		.align	1
 860              		.global	WS2812_Disable
 861              		.syntax unified
 862              		.thumb
 863              		.thumb_func
 864              		.fpu softvfp
 866              	WS2812_Disable:
 867              	.LVL55:
 868              	.LFB82:
 137:Core/Src/RGB.c **** 	}
 138:Core/Src/RGB.c **** }
 139:Core/Src/RGB.c **** 
 140:Core/Src/RGB.c **** void WS2812_Disable(WS2812* ws){
 869              		.loc 1 140 32 view -0
 870              		.cfi_startproc
 871              		@ args = 0, pretend = 0, frame = 0
 872              		@ frame_needed = 0, uses_anonymous_args = 0
 873              		.loc 1 140 32 is_stmt 0 view .LVU216
 874 0000 38B5     		push	{r3, r4, r5, lr}
 875              	.LCFI14:
 876              		.cfi_def_cfa_offset 16
 877              		.cfi_offset 3, -16
 878              		.cfi_offset 4, -12
 879              		.cfi_offset 5, -8
 880              		.cfi_offset 14, -4
 881 0002 0546     		mov	r5, r0
 141:Core/Src/RGB.c **** 	for(int i = 0; i < MAX_LED; i++){
 882              		.loc 1 141 2 is_stmt 1 view .LVU217
 883              	.LBB12:
 884              		.loc 1 141 6 view .LVU218
 885              	.LVL56:
 886              		.loc 1 141 10 is_stmt 0 view .LVU219
 887 0004 0024     		movs	r4, #0
 888              	.LVL57:
ARM GAS  /tmp/ccB91Jp9.s 			page 20


 889              	.L58:
 890              		.loc 1 141 17 is_stmt 1 discriminator 1 view .LVU220
 891              		.loc 1 141 2 is_stmt 0 discriminator 1 view .LVU221
 892 0006 0F2C     		cmp	r4, #15
 893 0008 05DC     		bgt	.L61
 142:Core/Src/RGB.c **** 		WS2812_LED_ClearRGB(ws, i);
 894              		.loc 1 142 3 is_stmt 1 discriminator 3 view .LVU222
 895 000a 2146     		mov	r1, r4
 896 000c 2846     		mov	r0, r5
 897 000e FFF7FEFF 		bl	WS2812_LED_ClearRGB
 898              	.LVL58:
 141:Core/Src/RGB.c **** 	for(int i = 0; i < MAX_LED; i++){
 899              		.loc 1 141 30 discriminator 3 view .LVU223
 141:Core/Src/RGB.c **** 	for(int i = 0; i < MAX_LED; i++){
 900              		.loc 1 141 31 is_stmt 0 discriminator 3 view .LVU224
 901 0012 0134     		adds	r4, r4, #1
 902              	.LVL59:
 141:Core/Src/RGB.c **** 	for(int i = 0; i < MAX_LED; i++){
 903              		.loc 1 141 31 discriminator 3 view .LVU225
 904 0014 F7E7     		b	.L58
 905              	.L61:
 141:Core/Src/RGB.c **** 	for(int i = 0; i < MAX_LED; i++){
 906              		.loc 1 141 31 discriminator 3 view .LVU226
 907              	.LBE12:
 143:Core/Src/RGB.c **** 	}
 144:Core/Src/RGB.c **** }
 908              		.loc 1 144 1 view .LVU227
 909 0016 38BD     		pop	{r3, r4, r5, pc}
 910              		.loc 1 144 1 view .LVU228
 911              		.cfi_endproc
 912              	.LFE82:
 914              		.section	.text.WS2812_LED_Task,"ax",%progbits
 915              		.align	1
 916              		.global	WS2812_LED_Task
 917              		.syntax unified
 918              		.thumb
 919              		.thumb_func
 920              		.fpu softvfp
 922              	WS2812_LED_Task:
 923              	.LVL60:
 924              	.LFB83:
 145:Core/Src/RGB.c **** 
 146:Core/Src/RGB.c **** 
 147:Core/Src/RGB.c **** uint32_t brightness = 50;
 148:Core/Src/RGB.c **** uint8_t do_once_flag = 1;
 149:Core/Src/RGB.c **** WS2812Mode rgb_mode = STATICMODE;
 150:Core/Src/RGB.c **** WS2812Mode last_rgb_mode = STATICMODE;
 151:Core/Src/RGB.c **** extern uint8_t sleep_mode;
 152:Core/Src/RGB.c **** 
 153:Core/Src/RGB.c **** void WS2812_LED_Task(void const * par){
 925              		.loc 1 153 39 is_stmt 1 view -0
 926              		.cfi_startproc
 927              		@ args = 0, pretend = 0, frame = 80
 928              		@ frame_needed = 0, uses_anonymous_args = 0
 929              		.loc 1 153 39 is_stmt 0 view .LVU230
 930 0000 70B5     		push	{r4, r5, r6, lr}
 931              	.LCFI15:
ARM GAS  /tmp/ccB91Jp9.s 			page 21


 932              		.cfi_def_cfa_offset 16
 933              		.cfi_offset 4, -16
 934              		.cfi_offset 5, -12
 935              		.cfi_offset 6, -8
 936              		.cfi_offset 14, -4
 937 0002 94B0     		sub	sp, sp, #80
 938              	.LCFI16:
 939              		.cfi_def_cfa_offset 96
 154:Core/Src/RGB.c **** 	WS2812_InitStruct ws2812_initStruct = {.LED_num = MAX_LED, .tim = &htim1, . channel = TIM_CHANNEL_
 940              		.loc 1 154 2 is_stmt 1 view .LVU231
 941              		.loc 1 154 20 is_stmt 0 view .LVU232
 942 0004 584A     		ldr	r2, .L86
 943 0006 11AB     		add	r3, sp, #68
 944 0008 07CA     		ldm	r2, {r0, r1, r2}
 945              	.LVL61:
 946              		.loc 1 154 20 view .LVU233
 947 000a 83E80700 		stm	r3, {r0, r1, r2}
 155:Core/Src/RGB.c **** 	WS2812_init(&ws2812, &ws2812_initStruct);
 948              		.loc 1 155 2 is_stmt 1 view .LVU234
 949 000e 1946     		mov	r1, r3
 950 0010 5648     		ldr	r0, .L86+4
 951 0012 FFF7FEFF 		bl	WS2812_init
 952              	.LVL62:
 156:Core/Src/RGB.c **** 	uint32_t color_index = 0;
 953              		.loc 1 156 2 view .LVU235
 157:Core/Src/RGB.c **** 	int32_t led_index = 0;
 954              		.loc 1 157 2 view .LVU236
 955              		.loc 1 157 10 is_stmt 0 view .LVU237
 956 0016 0024     		movs	r4, #0
 156:Core/Src/RGB.c **** 	uint32_t color_index = 0;
 957              		.loc 1 156 11 view .LVU238
 958 0018 2546     		mov	r5, r4
 959 001a 1FE0     		b	.L79
 960              	.LVL63:
 961              	.L65:
 962              	.LBB13:
 158:Core/Src/RGB.c **** 	
 159:Core/Src/RGB.c **** 
 160:Core/Src/RGB.c **** 	for(;;){
 161:Core/Src/RGB.c **** 
 162:Core/Src/RGB.c **** 		if(sleep_mode){
 163:Core/Src/RGB.c **** 			rgb_mode = WS2812DISABLE;
 164:Core/Src/RGB.c **** 		}
 165:Core/Src/RGB.c **** 
 166:Core/Src/RGB.c **** 		WS2812_LED_SetBrightness(&ws2812, brightness);
 167:Core/Src/RGB.c **** 
 168:Core/Src/RGB.c **** 		switch(rgb_mode){
 169:Core/Src/RGB.c **** 			case LOOPMODE:; 
 963              		.loc 1 169 18 is_stmt 1 view .LVU239
 170:Core/Src/RGB.c **** 				static uint32_t counter = 0;
 964              		.loc 1 170 5 view .LVU240
 171:Core/Src/RGB.c **** 				led_index = counter++;
 965              		.loc 1 171 5 view .LVU241
 966              		.loc 1 171 24 is_stmt 0 view .LVU242
 967 001c 544A     		ldr	r2, .L86+8
 968 001e 1368     		ldr	r3, [r2]
 969 0020 591C     		adds	r1, r3, #1
ARM GAS  /tmp/ccB91Jp9.s 			page 22


 970 0022 1160     		str	r1, [r2]
 971              		.loc 1 171 15 view .LVU243
 972 0024 1C46     		mov	r4, r3
 973              	.LVL64:
 172:Core/Src/RGB.c **** 				if(led_index == ws2812.LED_num) {
 974              		.loc 1 172 5 is_stmt 1 view .LVU244
 975              		.loc 1 172 27 is_stmt 0 view .LVU245
 976 0026 514A     		ldr	r2, .L86+4
 977 0028 1268     		ldr	r2, [r2]
 978              		.loc 1 172 7 view .LVU246
 979 002a 9342     		cmp	r3, r2
 980 002c 30D0     		beq	.L82
 981              	.LVL65:
 982              	.L70:
 173:Core/Src/RGB.c **** 					color_index++;
 174:Core/Src/RGB.c **** 					led_index = 0;
 175:Core/Src/RGB.c **** 					counter = 0;
 176:Core/Src/RGB.c **** 				}
 177:Core/Src/RGB.c **** 				if(color_index == sizeof(defaultColorList)/sizeof(RGB))
 983              		.loc 1 177 5 is_stmt 1 view .LVU247
 984              		.loc 1 177 7 is_stmt 0 view .LVU248
 985 002e 0A2D     		cmp	r5, #10
 986 0030 33D0     		beq	.L83
 987              	.LVL66:
 988              	.L71:
 178:Core/Src/RGB.c **** 					color_index = 0;
 179:Core/Src/RGB.c **** 				WS2812_LED_SetRGB(&ws2812, led_index, defaultColorList[color_index]);
 989              		.loc 1 179 5 is_stmt 1 view .LVU249
 990 0032 504A     		ldr	r2, .L86+12
 991 0034 05EB4503 		add	r3, r5, r5, lsl #1
 992 0038 D118     		adds	r1, r2, r3
 993 003a D35C     		ldrb	r3, [r2, r3]	@ zero_extendqisi2
 994 003c 4A78     		ldrb	r2, [r1, #1]	@ zero_extendqisi2
 995 003e 43EA0223 		orr	r3, r3, r2, lsl #8
 996 0042 8A78     		ldrb	r2, [r1, #2]	@ zero_extendqisi2
 997 0044 43EA0242 		orr	r2, r3, r2, lsl #16
 998 0048 2146     		mov	r1, r4
 999 004a 4848     		ldr	r0, .L86+4
 1000 004c FFF7FEFF 		bl	WS2812_LED_SetRGB
 1001              	.LVL67:
 180:Core/Src/RGB.c **** 			break;
 1002              		.loc 1 180 4 view .LVU250
 1003              	.L64:
 1004              		.loc 1 180 4 is_stmt 0 view .LVU251
 1005              	.LBE13:
 181:Core/Src/RGB.c **** 			case BREATHMODE:;
 182:Core/Src/RGB.c **** 				static int8_t step = 1;
 183:Core/Src/RGB.c **** 				if(step == 1){
 184:Core/Src/RGB.c **** 					WS2812_LED_SetRGB(&ws2812, led_index, defaultColorList[color_index]);
 185:Core/Src/RGB.c **** 					if(led_index > ws2812.LED_num-1) step = -1;
 186:Core/Src/RGB.c **** 				}
 187:Core/Src/RGB.c **** 				if(step == -1){
 188:Core/Src/RGB.c **** 					WS2812_LED_ClearRGB(&ws2812, led_index);
 189:Core/Src/RGB.c **** 					if(led_index < 0){
 190:Core/Src/RGB.c **** 						step = 1;
 191:Core/Src/RGB.c **** 						color_index++;
 192:Core/Src/RGB.c **** 						color_index %= 10;
ARM GAS  /tmp/ccB91Jp9.s 			page 23


 193:Core/Src/RGB.c **** 					}
 194:Core/Src/RGB.c **** 				}
 195:Core/Src/RGB.c **** 				led_index += step;
 196:Core/Src/RGB.c **** 			break;
 197:Core/Src/RGB.c **** 			case STATICMODE:;
 198:Core/Src/RGB.c **** 				uint32_t data[MAX_LED];
 199:Core/Src/RGB.c **** 				if(do_once_flag){
 200:Core/Src/RGB.c **** 					Flash_Read_Data (LED_START_ADDR, &data, MAX_LED);
 201:Core/Src/RGB.c **** 					do_once_flag = 0;
 202:Core/Src/RGB.c **** 					for(int i = 0; i < MAX_LED; i++){
 203:Core/Src/RGB.c **** 						if(data[i] == 0xFFFFFFFF) continue;
 204:Core/Src/RGB.c **** 						for(int j = 0; j < SELECTION; j++)
 205:Core/Src/RGB.c **** 							ws2812.LED_Data[i][j] = (uint8_t)(data[i] >> (8 * j));
 206:Core/Src/RGB.c **** 					}
 207:Core/Src/RGB.c **** 				}
 208:Core/Src/RGB.c **** 			break;
 209:Core/Src/RGB.c **** 			case WS2812DISABLE: 		
 210:Core/Src/RGB.c **** 				WS2812_Disable(&ws2812);	
 211:Core/Src/RGB.c **** 			break;	
 212:Core/Src/RGB.c **** 			default: break;
 213:Core/Src/RGB.c **** 		}
 214:Core/Src/RGB.c **** 		WS2812_sendData(&ws2812);
 1006              		.loc 1 214 3 is_stmt 1 discriminator 1 view .LVU252
 1007 0050 4648     		ldr	r0, .L86+4
 1008 0052 FFF7FEFF 		bl	WS2812_sendData
 1009              	.LVL68:
 215:Core/Src/RGB.c **** 		osDelay(50);
 1010              		.loc 1 215 3 discriminator 1 view .LVU253
 1011 0056 3220     		movs	r0, #50
 1012 0058 FFF7FEFF 		bl	osDelay
 1013              	.LVL69:
 160:Core/Src/RGB.c **** 
 1014              		.loc 1 160 7 discriminator 1 view .LVU254
 1015              	.L79:
 160:Core/Src/RGB.c **** 
 1016              		.loc 1 160 2 view .LVU255
 162:Core/Src/RGB.c **** 			rgb_mode = WS2812DISABLE;
 1017              		.loc 1 162 3 view .LVU256
 162:Core/Src/RGB.c **** 			rgb_mode = WS2812DISABLE;
 1018              		.loc 1 162 6 is_stmt 0 view .LVU257
 1019 005c 464B     		ldr	r3, .L86+16
 1020 005e 1B78     		ldrb	r3, [r3]	@ zero_extendqisi2
 162:Core/Src/RGB.c **** 			rgb_mode = WS2812DISABLE;
 1021              		.loc 1 162 5 view .LVU258
 1022 0060 13B1     		cbz	r3, .L63
 163:Core/Src/RGB.c **** 		}
 1023              		.loc 1 163 4 is_stmt 1 view .LVU259
 163:Core/Src/RGB.c **** 		}
 1024              		.loc 1 163 13 is_stmt 0 view .LVU260
 1025 0062 464B     		ldr	r3, .L86+20
 1026 0064 0022     		movs	r2, #0
 1027 0066 1A70     		strb	r2, [r3]
 1028              	.L63:
 166:Core/Src/RGB.c **** 
 1029              		.loc 1 166 3 is_stmt 1 view .LVU261
 1030 0068 454B     		ldr	r3, .L86+24
 1031 006a 1978     		ldrb	r1, [r3]	@ zero_extendqisi2
ARM GAS  /tmp/ccB91Jp9.s 			page 24


 1032 006c 3F48     		ldr	r0, .L86+4
 1033 006e FFF7FEFF 		bl	WS2812_LED_SetBrightness
 1034              	.LVL70:
 168:Core/Src/RGB.c **** 			case LOOPMODE:; 
 1035              		.loc 1 168 3 view .LVU262
 1036 0072 424B     		ldr	r3, .L86+20
 1037 0074 1B78     		ldrb	r3, [r3]	@ zero_extendqisi2
 1038 0076 032B     		cmp	r3, #3
 1039 0078 EAD8     		bhi	.L64
 1040 007a 01A2     		adr	r2, .L66
 1041 007c 52F823F0 		ldr	pc, [r2, r3, lsl #2]
 1042              		.p2align 2
 1043              	.L66:
 1044 0080 61010000 		.word	.L69+1
 1045 0084 15010000 		.word	.L68+1
 1046 0088 9F000000 		.word	.L67+1
 1047 008c 1D000000 		.word	.L65+1
 1048              	.LVL71:
 1049              		.p2align 1
 1050              	.L82:
 1051              	.LBB17:
 173:Core/Src/RGB.c **** 					led_index = 0;
 1052              		.loc 1 173 6 view .LVU263
 173:Core/Src/RGB.c **** 					led_index = 0;
 1053              		.loc 1 173 17 is_stmt 0 view .LVU264
 1054 0090 0135     		adds	r5, r5, #1
 1055              	.LVL72:
 174:Core/Src/RGB.c **** 					counter = 0;
 1056              		.loc 1 174 6 is_stmt 1 view .LVU265
 175:Core/Src/RGB.c **** 				}
 1057              		.loc 1 175 6 view .LVU266
 175:Core/Src/RGB.c **** 				}
 1058              		.loc 1 175 14 is_stmt 0 view .LVU267
 1059 0092 0024     		movs	r4, #0
 1060 0094 364B     		ldr	r3, .L86+8
 1061 0096 1C60     		str	r4, [r3]
 1062 0098 C9E7     		b	.L70
 1063              	.LVL73:
 1064              	.L83:
 178:Core/Src/RGB.c **** 				WS2812_LED_SetRGB(&ws2812, led_index, defaultColorList[color_index]);
 1065              		.loc 1 178 18 view .LVU268
 1066 009a 0025     		movs	r5, #0
 1067              	.LVL74:
 178:Core/Src/RGB.c **** 				WS2812_LED_SetRGB(&ws2812, led_index, defaultColorList[color_index]);
 1068              		.loc 1 178 18 view .LVU269
 1069 009c C9E7     		b	.L71
 1070              	.LVL75:
 1071              	.L67:
 181:Core/Src/RGB.c **** 				static int8_t step = 1;
 1072              		.loc 1 181 20 is_stmt 1 view .LVU270
 182:Core/Src/RGB.c **** 				if(step == 1){
 1073              		.loc 1 182 5 view .LVU271
 183:Core/Src/RGB.c **** 					WS2812_LED_SetRGB(&ws2812, led_index, defaultColorList[color_index]);
 1074              		.loc 1 183 5 view .LVU272
 183:Core/Src/RGB.c **** 					WS2812_LED_SetRGB(&ws2812, led_index, defaultColorList[color_index]);
 1075              		.loc 1 183 13 is_stmt 0 view .LVU273
 1076 009e 394B     		ldr	r3, .L86+28
ARM GAS  /tmp/ccB91Jp9.s 			page 25


 1077 00a0 93F90030 		ldrsb	r3, [r3]
 183:Core/Src/RGB.c **** 					WS2812_LED_SetRGB(&ws2812, led_index, defaultColorList[color_index]);
 1078              		.loc 1 183 7 view .LVU274
 1079 00a4 012B     		cmp	r3, #1
 1080 00a6 0AD0     		beq	.L84
 1081              	.L72:
 187:Core/Src/RGB.c **** 					WS2812_LED_ClearRGB(&ws2812, led_index);
 1082              		.loc 1 187 5 is_stmt 1 view .LVU275
 187:Core/Src/RGB.c **** 					WS2812_LED_ClearRGB(&ws2812, led_index);
 1083              		.loc 1 187 13 is_stmt 0 view .LVU276
 1084 00a8 364B     		ldr	r3, .L86+28
 1085 00aa 93F90030 		ldrsb	r3, [r3]
 187:Core/Src/RGB.c **** 					WS2812_LED_ClearRGB(&ws2812, led_index);
 1086              		.loc 1 187 7 view .LVU277
 1087 00ae B3F1FF3F 		cmp	r3, #-1
 1088 00b2 1CD0     		beq	.L85
 1089              	.L73:
 195:Core/Src/RGB.c **** 			break;
 1090              		.loc 1 195 5 is_stmt 1 view .LVU278
 195:Core/Src/RGB.c **** 			break;
 1091              		.loc 1 195 15 is_stmt 0 view .LVU279
 1092 00b4 334B     		ldr	r3, .L86+28
 1093 00b6 93F90030 		ldrsb	r3, [r3]
 1094 00ba 1C44     		add	r4, r4, r3
 1095              	.LVL76:
 196:Core/Src/RGB.c **** 			case STATICMODE:;
 1096              		.loc 1 196 4 is_stmt 1 view .LVU280
 1097 00bc C8E7     		b	.L64
 1098              	.L84:
 184:Core/Src/RGB.c **** 					if(led_index > ws2812.LED_num-1) step = -1;
 1099              		.loc 1 184 6 view .LVU281
 1100 00be 2D49     		ldr	r1, .L86+12
 1101 00c0 05EB4503 		add	r3, r5, r5, lsl #1
 1102 00c4 CA18     		adds	r2, r1, r3
 1103 00c6 294E     		ldr	r6, .L86+4
 1104 00c8 CB5C     		ldrb	r3, [r1, r3]	@ zero_extendqisi2
 1105 00ca 5178     		ldrb	r1, [r2, #1]	@ zero_extendqisi2
 1106 00cc 43EA0123 		orr	r3, r3, r1, lsl #8
 1107 00d0 9278     		ldrb	r2, [r2, #2]	@ zero_extendqisi2
 1108 00d2 43EA0242 		orr	r2, r3, r2, lsl #16
 1109 00d6 2146     		mov	r1, r4
 1110 00d8 3046     		mov	r0, r6
 1111 00da FFF7FEFF 		bl	WS2812_LED_SetRGB
 1112              	.LVL77:
 185:Core/Src/RGB.c **** 				}
 1113              		.loc 1 185 6 view .LVU282
 185:Core/Src/RGB.c **** 				}
 1114              		.loc 1 185 27 is_stmt 0 view .LVU283
 1115 00de 3368     		ldr	r3, [r6]
 185:Core/Src/RGB.c **** 				}
 1116              		.loc 1 185 35 view .LVU284
 1117 00e0 013B     		subs	r3, r3, #1
 185:Core/Src/RGB.c **** 				}
 1118              		.loc 1 185 8 view .LVU285
 1119 00e2 9C42     		cmp	r4, r3
 1120 00e4 E0D9     		bls	.L72
 185:Core/Src/RGB.c **** 				}
ARM GAS  /tmp/ccB91Jp9.s 			page 26


 1121              		.loc 1 185 39 is_stmt 1 discriminator 1 view .LVU286
 185:Core/Src/RGB.c **** 				}
 1122              		.loc 1 185 44 is_stmt 0 discriminator 1 view .LVU287
 1123 00e6 274B     		ldr	r3, .L86+28
 1124 00e8 FF22     		movs	r2, #255
 1125 00ea 1A70     		strb	r2, [r3]
 1126 00ec DCE7     		b	.L72
 1127              	.L85:
 188:Core/Src/RGB.c **** 					if(led_index < 0){
 1128              		.loc 1 188 6 is_stmt 1 view .LVU288
 1129 00ee 2146     		mov	r1, r4
 1130 00f0 1E48     		ldr	r0, .L86+4
 1131 00f2 FFF7FEFF 		bl	WS2812_LED_ClearRGB
 1132              	.LVL78:
 189:Core/Src/RGB.c **** 						step = 1;
 1133              		.loc 1 189 6 view .LVU289
 189:Core/Src/RGB.c **** 						step = 1;
 1134              		.loc 1 189 8 is_stmt 0 view .LVU290
 1135 00f6 002C     		cmp	r4, #0
 1136 00f8 DCDA     		bge	.L73
 190:Core/Src/RGB.c **** 						color_index++;
 1137              		.loc 1 190 7 is_stmt 1 view .LVU291
 190:Core/Src/RGB.c **** 						color_index++;
 1138              		.loc 1 190 12 is_stmt 0 view .LVU292
 1139 00fa 224B     		ldr	r3, .L86+28
 1140 00fc 0122     		movs	r2, #1
 1141 00fe 1A70     		strb	r2, [r3]
 191:Core/Src/RGB.c **** 						color_index %= 10;
 1142              		.loc 1 191 7 is_stmt 1 view .LVU293
 191:Core/Src/RGB.c **** 						color_index %= 10;
 1143              		.loc 1 191 18 is_stmt 0 view .LVU294
 1144 0100 AA18     		adds	r2, r5, r2
 1145              	.LVL79:
 192:Core/Src/RGB.c **** 					}
 1146              		.loc 1 192 7 is_stmt 1 view .LVU295
 192:Core/Src/RGB.c **** 					}
 1147              		.loc 1 192 19 is_stmt 0 view .LVU296
 1148 0102 214D     		ldr	r5, .L86+32
 1149 0104 A5FB0235 		umull	r3, r5, r5, r2
 1150 0108 ED08     		lsrs	r5, r5, #3
 1151 010a 05EB8505 		add	r5, r5, r5, lsl #2
 1152 010e 6B00     		lsls	r3, r5, #1
 1153 0110 D51A     		subs	r5, r2, r3
 1154              	.LVL80:
 192:Core/Src/RGB.c **** 					}
 1155              		.loc 1 192 19 view .LVU297
 1156 0112 CFE7     		b	.L73
 1157              	.L68:
 197:Core/Src/RGB.c **** 				uint32_t data[MAX_LED];
 1158              		.loc 1 197 20 is_stmt 1 view .LVU298
 198:Core/Src/RGB.c **** 				if(do_once_flag){
 1159              		.loc 1 198 5 view .LVU299
 199:Core/Src/RGB.c **** 					Flash_Read_Data (LED_START_ADDR, &data, MAX_LED);
 1160              		.loc 1 199 5 view .LVU300
 199:Core/Src/RGB.c **** 					Flash_Read_Data (LED_START_ADDR, &data, MAX_LED);
 1161              		.loc 1 199 8 is_stmt 0 view .LVU301
 1162 0114 1D4B     		ldr	r3, .L86+36
ARM GAS  /tmp/ccB91Jp9.s 			page 27


 1163 0116 1B78     		ldrb	r3, [r3]	@ zero_extendqisi2
 199:Core/Src/RGB.c **** 					Flash_Read_Data (LED_START_ADDR, &data, MAX_LED);
 1164              		.loc 1 199 7 view .LVU302
 1165 0118 002B     		cmp	r3, #0
 1166 011a 99D0     		beq	.L64
 200:Core/Src/RGB.c **** 					do_once_flag = 0;
 1167              		.loc 1 200 6 is_stmt 1 view .LVU303
 1168 011c 1022     		movs	r2, #16
 1169 011e 01A9     		add	r1, sp, #4
 1170 0120 1B48     		ldr	r0, .L86+40
 1171 0122 FFF7FEFF 		bl	Flash_Read_Data
 1172              	.LVL81:
 201:Core/Src/RGB.c **** 					for(int i = 0; i < MAX_LED; i++){
 1173              		.loc 1 201 6 view .LVU304
 201:Core/Src/RGB.c **** 					for(int i = 0; i < MAX_LED; i++){
 1174              		.loc 1 201 19 is_stmt 0 view .LVU305
 1175 0126 0020     		movs	r0, #0
 1176 0128 184B     		ldr	r3, .L86+36
 1177 012a 1870     		strb	r0, [r3]
 202:Core/Src/RGB.c **** 						if(data[i] == 0xFFFFFFFF) continue;
 1178              		.loc 1 202 6 is_stmt 1 view .LVU306
 1179              	.LBB14:
 202:Core/Src/RGB.c **** 						if(data[i] == 0xFFFFFFFF) continue;
 1180              		.loc 1 202 10 view .LVU307
 1181              	.LVL82:
 202:Core/Src/RGB.c **** 						if(data[i] == 0xFFFFFFFF) continue;
 1182              		.loc 1 202 6 is_stmt 0 view .LVU308
 1183 012c 0CE0     		b	.L74
 1184              	.LVL83:
 1185              	.L77:
 1186              	.LBB15:
 205:Core/Src/RGB.c **** 					}
 1187              		.loc 1 205 8 is_stmt 1 discriminator 3 view .LVU309
 205:Core/Src/RGB.c **** 					}
 1188              		.loc 1 205 56 is_stmt 0 discriminator 3 view .LVU310
 1189 012e D100     		lsls	r1, r2, #3
 205:Core/Src/RGB.c **** 					}
 1190              		.loc 1 205 50 discriminator 3 view .LVU311
 1191 0130 26FA01F1 		lsr	r1, r6, r1
 205:Core/Src/RGB.c **** 					}
 1192              		.loc 1 205 30 discriminator 3 view .LVU312
 1193 0134 0D4B     		ldr	r3, .L86+4
 1194 0136 03EB8003 		add	r3, r3, r0, lsl #2
 1195 013a 1344     		add	r3, r3, r2
 1196 013c 83F8D416 		strb	r1, [r3, #1748]
 204:Core/Src/RGB.c **** 							ws2812.LED_Data[i][j] = (uint8_t)(data[i] >> (8 * j));
 1197              		.loc 1 204 37 is_stmt 1 discriminator 3 view .LVU313
 204:Core/Src/RGB.c **** 							ws2812.LED_Data[i][j] = (uint8_t)(data[i] >> (8 * j));
 1198              		.loc 1 204 38 is_stmt 0 discriminator 3 view .LVU314
 1199 0140 0132     		adds	r2, r2, #1
 1200              	.LVL84:
 1201              	.L76:
 204:Core/Src/RGB.c **** 							ws2812.LED_Data[i][j] = (uint8_t)(data[i] >> (8 * j));
 1202              		.loc 1 204 22 is_stmt 1 discriminator 1 view .LVU315
 204:Core/Src/RGB.c **** 							ws2812.LED_Data[i][j] = (uint8_t)(data[i] >> (8 * j));
 1203              		.loc 1 204 7 is_stmt 0 discriminator 1 view .LVU316
 1204 0142 032A     		cmp	r2, #3
ARM GAS  /tmp/ccB91Jp9.s 			page 28


 1205 0144 F3DD     		ble	.L77
 1206              	.LVL85:
 1207              	.L75:
 204:Core/Src/RGB.c **** 							ws2812.LED_Data[i][j] = (uint8_t)(data[i] >> (8 * j));
 1208              		.loc 1 204 7 discriminator 1 view .LVU317
 1209              	.LBE15:
 202:Core/Src/RGB.c **** 						if(data[i] == 0xFFFFFFFF) continue;
 1210              		.loc 1 202 34 is_stmt 1 discriminator 2 view .LVU318
 202:Core/Src/RGB.c **** 						if(data[i] == 0xFFFFFFFF) continue;
 1211              		.loc 1 202 35 is_stmt 0 discriminator 2 view .LVU319
 1212 0146 0130     		adds	r0, r0, #1
 1213              	.LVL86:
 1214              	.L74:
 202:Core/Src/RGB.c **** 						if(data[i] == 0xFFFFFFFF) continue;
 1215              		.loc 1 202 21 is_stmt 1 discriminator 1 view .LVU320
 202:Core/Src/RGB.c **** 						if(data[i] == 0xFFFFFFFF) continue;
 1216              		.loc 1 202 6 is_stmt 0 discriminator 1 view .LVU321
 1217 0148 0F28     		cmp	r0, #15
 1218 014a 81DC     		bgt	.L64
 203:Core/Src/RGB.c **** 						for(int j = 0; j < SELECTION; j++)
 1219              		.loc 1 203 7 is_stmt 1 view .LVU322
 203:Core/Src/RGB.c **** 						for(int j = 0; j < SELECTION; j++)
 1220              		.loc 1 203 14 is_stmt 0 view .LVU323
 1221 014c 14AB     		add	r3, sp, #80
 1222 014e 03EB8003 		add	r3, r3, r0, lsl #2
 1223 0152 53F84C6C 		ldr	r6, [r3, #-76]
 203:Core/Src/RGB.c **** 						for(int j = 0; j < SELECTION; j++)
 1224              		.loc 1 203 9 view .LVU324
 1225 0156 B6F1FF3F 		cmp	r6, #-1
 1226 015a F4D0     		beq	.L75
 1227              	.LBB16:
 204:Core/Src/RGB.c **** 							ws2812.LED_Data[i][j] = (uint8_t)(data[i] >> (8 * j));
 1228              		.loc 1 204 15 view .LVU325
 1229 015c 0022     		movs	r2, #0
 1230 015e F0E7     		b	.L76
 1231              	.LVL87:
 1232              	.L69:
 204:Core/Src/RGB.c **** 							ws2812.LED_Data[i][j] = (uint8_t)(data[i] >> (8 * j));
 1233              		.loc 1 204 15 view .LVU326
 1234              	.LBE16:
 1235              	.LBE14:
 210:Core/Src/RGB.c **** 			break;	
 1236              		.loc 1 210 5 is_stmt 1 view .LVU327
 1237 0160 0248     		ldr	r0, .L86+4
 1238 0162 FFF7FEFF 		bl	WS2812_Disable
 1239              	.LVL88:
 211:Core/Src/RGB.c **** 			default: break;
 1240              		.loc 1 211 4 view .LVU328
 1241 0166 73E7     		b	.L64
 1242              	.L87:
 1243              		.align	2
 1244              	.L86:
 1245 0168 00000000 		.word	.LANCHOR8
 1246 016c 00000000 		.word	ws2812
 1247 0170 00000000 		.word	.LANCHOR11
 1248 0174 00000000 		.word	.LANCHOR4
 1249 0178 00000000 		.word	sleep_mode
ARM GAS  /tmp/ccB91Jp9.s 			page 29


 1250 017c 00000000 		.word	.LANCHOR9
 1251 0180 00000000 		.word	.LANCHOR10
 1252 0184 00000000 		.word	.LANCHOR12
 1253 0188 CDCCCCCC 		.word	-858993459
 1254 018c 00000000 		.word	.LANCHOR13
 1255 0190 00D80708 		.word	134731776
 1256              	.LBE17:
 1257              		.cfi_endproc
 1258              	.LFE83:
 1260              		.global	last_rgb_mode
 1261              		.global	rgb_mode
 1262              		.global	do_once_flag
 1263              		.global	brightness
 1264              		.global	defaultColorList
 1265              		.comm	ws2812,1816,4
 1266              		.global	datasentflag
 1267              		.section	.rodata
 1268              		.align	2
 1269              		.set	.LANCHOR8,. + 0
 1270              	.LC0:
 1271 0000 10000000 		.word	16
 1272 0004 00000000 		.word	htim1
 1273 0008 00000000 		.word	0
 1274              		.section	.bss.color_index.9621,"aw",%nobits
 1275              		.align	2
 1276              		.set	.LANCHOR3,. + 0
 1279              	color_index.9621:
 1280 0000 00000000 		.space	4
 1281              		.section	.bss.color_index.9630,"aw",%nobits
 1282              		.align	2
 1283              		.set	.LANCHOR6,. + 0
 1286              	color_index.9630:
 1287 0000 00000000 		.space	4
 1288              		.section	.bss.counter.9622,"aw",%nobits
 1289              		.align	2
 1290              		.set	.LANCHOR1,. + 0
 1293              	counter.9622:
 1294 0000 00000000 		.space	4
 1295              		.section	.bss.counter.9665,"aw",%nobits
 1296              		.align	2
 1297              		.set	.LANCHOR11,. + 0
 1300              	counter.9665:
 1301 0000 00000000 		.space	4
 1302              		.section	.bss.datasentflag,"aw",%nobits
 1303              		.set	.LANCHOR0,. + 0
 1306              	datasentflag:
 1307 0000 00       		.space	1
 1308              		.section	.bss.led_index.9623,"aw",%nobits
 1309              		.align	2
 1310              		.set	.LANCHOR2,. + 0
 1313              	led_index.9623:
 1314 0000 00000000 		.space	4
 1315              		.section	.bss.led_index.9628,"aw",%nobits
 1316              		.align	2
 1317              		.set	.LANCHOR7,. + 0
 1320              	led_index.9628:
 1321 0000 00000000 		.space	4
ARM GAS  /tmp/ccB91Jp9.s 			page 30


 1322              		.section	.data.brightness,"aw"
 1323              		.align	2
 1324              		.set	.LANCHOR10,. + 0
 1327              	brightness:
 1328 0000 32000000 		.word	50
 1329              		.section	.data.defaultColorList,"aw"
 1330              		.align	2
 1331              		.set	.LANCHOR4,. + 0
 1334              	defaultColorList:
 1335 0000 FF       		.byte	-1
 1336 0001 FF       		.byte	-1
 1337 0002 FF       		.byte	-1
 1338 0003 00       		.byte	0
 1339 0004 00       		.byte	0
 1340 0005 FF       		.byte	-1
 1341 0006 FF       		.byte	-1
 1342 0007 00       		.byte	0
 1343 0008 00       		.byte	0
 1344 0009 00       		.byte	0
 1345 000a FF       		.byte	-1
 1346 000b 00       		.byte	0
 1347 000c FF       		.byte	-1
 1348 000d FF       		.byte	-1
 1349 000e 00       		.byte	0
 1350 000f 00       		.byte	0
 1351 0010 FF       		.byte	-1
 1352 0011 FF       		.byte	-1
 1353 0012 FF       		.byte	-1
 1354 0013 00       		.byte	0
 1355 0014 FF       		.byte	-1
 1356 0015 FF       		.byte	-1
 1357 0016 1E       		.byte	30
 1358 0017 00       		.byte	0
 1359 0018 FF       		.byte	-1
 1360 0019 14       		.byte	20
 1361 001a 93       		.byte	-109
 1362 001b 8B       		.byte	-117
 1363 001c 45       		.byte	69
 1364 001d 13       		.byte	19
 1365              		.section	.data.do_once_flag,"aw"
 1366              		.set	.LANCHOR13,. + 0
 1369              	do_once_flag:
 1370 0000 01       		.byte	1
 1371              		.section	.data.last_rgb_mode,"aw"
 1374              	last_rgb_mode:
 1375 0000 01       		.byte	1
 1376              		.section	.data.rgb_mode,"aw"
 1377              		.set	.LANCHOR9,. + 0
 1380              	rgb_mode:
 1381 0000 01       		.byte	1
 1382              		.section	.data.step.9629,"aw"
 1383              		.set	.LANCHOR5,. + 0
 1386              	step.9629:
 1387 0000 01       		.byte	1
 1388              		.section	.data.step.9668,"aw"
 1389              		.set	.LANCHOR12,. + 0
 1392              	step.9668:
ARM GAS  /tmp/ccB91Jp9.s 			page 31


 1393 0000 01       		.byte	1
 1394              		.text
 1395              	.Letext0:
 1396              		.file 2 "/usr/lib/gcc/arm-none-eabi/9.2.1/include/stdint.h"
 1397              		.file 3 "Drivers/CMSIS/Include/core_cm3.h"
 1398              		.file 4 "Drivers/CMSIS/Device/ST/STM32F1xx/Include/system_stm32f1xx.h"
 1399              		.file 5 "Drivers/CMSIS/Device/ST/STM32F1xx/Include/stm32f103xe.h"
 1400              		.file 6 "/usr/lib/gcc/arm-none-eabi/9.2.1/include/stddef.h"
 1401              		.file 7 "/usr/include/newlib/sys/_types.h"
 1402              		.file 8 "/usr/include/newlib/sys/reent.h"
 1403              		.file 9 "/usr/include/newlib/sys/lock.h"
 1404              		.file 10 "Drivers/STM32F1xx_HAL_Driver/Inc/stm32f1xx_hal_def.h"
 1405              		.file 11 "Drivers/STM32F1xx_HAL_Driver/Inc/stm32f1xx_hal_dma.h"
 1406              		.file 12 "Drivers/STM32F1xx_HAL_Driver/Inc/stm32f1xx_hal_i2c.h"
 1407              		.file 13 "Drivers/STM32F1xx_HAL_Driver/Inc/stm32f1xx_hal_tim.h"
 1408              		.file 14 "Drivers/STM32F1xx_HAL_Driver/Inc/stm32f1xx_hal.h"
 1409              		.file 15 "/usr/include/newlib/stdlib.h"
 1410              		.file 16 "Core/Inc/RGB.h"
 1411              		.file 17 "Core/Inc/oled/ssd1306_fonts.h"
 1412              		.file 18 "Core/Inc/oled/ssd1306.h"
 1413              		.file 19 "/usr/include/newlib/math.h"
 1414              		.file 20 "Core/Inc/oled/led_page.h"
 1415              		.file 21 "Core/Inc/flash.h"
 1416              		.file 22 "Middlewares/Third_Party/FreeRTOS/Source/CMSIS_RTOS/cmsis_os.h"
ARM GAS  /tmp/ccB91Jp9.s 			page 32

