ARM GAS  /tmp/ccjX1LNs.s 			page 1


   1              		.cpu cortex-m3
   2              		.eabi_attribute 20, 1
   3              		.eabi_attribute 21, 1
   4              		.eabi_attribute 23, 3
   5              		.eabi_attribute 24, 1
   6              		.eabi_attribute 25, 1
   7              		.eabi_attribute 26, 1
   8              		.eabi_attribute 30, 1
   9              		.eabi_attribute 34, 1
  10              		.eabi_attribute 18, 4
  11              		.file	"ssd1306_tests.c"
  12              		.text
  13              	.Ltext0:
  14              		.cfi_sections	.debug_frame
  15              		.section	.text.ssd1306_TestBorder,"ax",%progbits
  16              		.align	1
  17              		.global	ssd1306_TestBorder
  18              		.arch armv7-m
  19              		.syntax unified
  20              		.thumb
  21              		.thumb_func
  22              		.fpu softvfp
  24              	ssd1306_TestBorder:
  25              	.LFB66:
  26              		.file 1 "Core/Src/oled/ssd1306_tests.c"
   1:Core/Src/oled/ssd1306_tests.c **** #include <string.h>
   2:Core/Src/oled/ssd1306_tests.c **** #include <stdio.h>
   3:Core/Src/oled/ssd1306_tests.c **** #include "../../Inc/oled/ssd1306.h"
   4:Core/Src/oled/ssd1306_tests.c **** #include "../../Inc/oled/ssd1306_tests.h"
   5:Core/Src/oled/ssd1306_tests.c **** 
   6:Core/Src/oled/ssd1306_tests.c **** void ssd1306_TestBorder() {
  27              		.loc 1 6 27 view -0
  28              		.cfi_startproc
  29              		@ args = 0, pretend = 0, frame = 0
  30              		@ frame_needed = 0, uses_anonymous_args = 0
  31 0000 70B5     		push	{r4, r5, r6, lr}
  32              	.LCFI0:
  33              		.cfi_def_cfa_offset 16
  34              		.cfi_offset 4, -16
  35              		.cfi_offset 5, -12
  36              		.cfi_offset 6, -8
  37              		.cfi_offset 14, -4
   7:Core/Src/oled/ssd1306_tests.c ****     ssd1306_Fill(Black);
  38              		.loc 1 7 5 view .LVU1
  39 0002 0020     		movs	r0, #0
  40 0004 FFF7FEFF 		bl	ssd1306_Fill
  41              	.LVL0:
   8:Core/Src/oled/ssd1306_tests.c ****    
   9:Core/Src/oled/ssd1306_tests.c ****     uint32_t start = HAL_GetTick();
  42              		.loc 1 9 5 view .LVU2
  43              		.loc 1 9 22 is_stmt 0 view .LVU3
  44 0008 FFF7FEFF 		bl	HAL_GetTick
  45              	.LVL1:
  46 000c 0646     		mov	r6, r0
  47              	.LVL2:
  10:Core/Src/oled/ssd1306_tests.c ****     uint32_t end = start;
  48              		.loc 1 10 5 is_stmt 1 view .LVU4
ARM GAS  /tmp/ccjX1LNs.s 			page 2


  11:Core/Src/oled/ssd1306_tests.c ****     uint8_t x = 0;
  49              		.loc 1 11 5 view .LVU5
  12:Core/Src/oled/ssd1306_tests.c ****     uint8_t y = 0;
  50              		.loc 1 12 5 view .LVU6
  51              		.loc 1 12 13 is_stmt 0 view .LVU7
  52 000e 0024     		movs	r4, #0
  11:Core/Src/oled/ssd1306_tests.c ****     uint8_t x = 0;
  53              		.loc 1 11 13 view .LVU8
  54 0010 2546     		mov	r5, r4
  55 0012 15E0     		b	.L6
  56              	.LVL3:
  57              	.L2:
  13:Core/Src/oled/ssd1306_tests.c ****     do {
  14:Core/Src/oled/ssd1306_tests.c ****         ssd1306_DrawPixel(x, y, Black);
  15:Core/Src/oled/ssd1306_tests.c **** 
  16:Core/Src/oled/ssd1306_tests.c ****         if((y == 0) && (x < 127))
  17:Core/Src/oled/ssd1306_tests.c ****             x++;
  18:Core/Src/oled/ssd1306_tests.c ****         else if((x == 127) && (y < (SSD1306_HEIGHT-1)))
  58              		.loc 1 18 14 is_stmt 1 view .LVU9
  59              		.loc 1 18 16 is_stmt 0 view .LVU10
  60 0014 7F2D     		cmp	r5, #127
  61 0016 1FD0     		beq	.L8
  62              	.L4:
  19:Core/Src/oled/ssd1306_tests.c ****             y++;
  20:Core/Src/oled/ssd1306_tests.c ****         else if((y == (SSD1306_HEIGHT-1)) && (x > 0)) 
  63              		.loc 1 20 14 is_stmt 1 view .LVU11
  64              		.loc 1 20 16 is_stmt 0 view .LVU12
  65 0018 3F2C     		cmp	r4, #63
  66 001a 22D0     		beq	.L9
  67              	.L5:
  21:Core/Src/oled/ssd1306_tests.c ****             x--;
  22:Core/Src/oled/ssd1306_tests.c ****         else
  23:Core/Src/oled/ssd1306_tests.c ****             y--;
  68              		.loc 1 23 13 is_stmt 1 view .LVU13
  69              		.loc 1 23 14 is_stmt 0 view .LVU14
  70 001c 013C     		subs	r4, r4, #1
  71              	.LVL4:
  72              		.loc 1 23 14 view .LVU15
  73 001e E4B2     		uxtb	r4, r4
  74              	.LVL5:
  75              	.L3:
  24:Core/Src/oled/ssd1306_tests.c **** 
  25:Core/Src/oled/ssd1306_tests.c ****         ssd1306_DrawPixel(x, y, White);
  76              		.loc 1 25 9 is_stmt 1 view .LVU16
  77 0020 0122     		movs	r2, #1
  78 0022 2146     		mov	r1, r4
  79 0024 2846     		mov	r0, r5
  80 0026 FFF7FEFF 		bl	ssd1306_DrawPixel
  81              	.LVL6:
  26:Core/Src/oled/ssd1306_tests.c ****         ssd1306_UpdateScreen();
  82              		.loc 1 26 9 view .LVU17
  83 002a FFF7FEFF 		bl	ssd1306_UpdateScreen
  84              	.LVL7:
  27:Core/Src/oled/ssd1306_tests.c ****     
  28:Core/Src/oled/ssd1306_tests.c ****         HAL_Delay(5);
  85              		.loc 1 28 9 view .LVU18
  86 002e 0520     		movs	r0, #5
ARM GAS  /tmp/ccjX1LNs.s 			page 3


  87 0030 FFF7FEFF 		bl	HAL_Delay
  88              	.LVL8:
  29:Core/Src/oled/ssd1306_tests.c ****         end = HAL_GetTick();
  89              		.loc 1 29 9 view .LVU19
  90              		.loc 1 29 15 is_stmt 0 view .LVU20
  91 0034 FFF7FEFF 		bl	HAL_GetTick
  92              	.LVL9:
  30:Core/Src/oled/ssd1306_tests.c ****     } while((end - start) < 8000);
  93              		.loc 1 30 12 is_stmt 1 view .LVU21
  94              		.loc 1 30 18 is_stmt 0 view .LVU22
  95 0038 801B     		subs	r0, r0, r6
  96              	.LVL10:
  97              		.loc 1 30 5 view .LVU23
  98 003a B0F5FA5F 		cmp	r0, #8000
  99 003e 15D2     		bcs	.L10
 100              	.LVL11:
 101              	.L6:
  13:Core/Src/oled/ssd1306_tests.c ****         ssd1306_DrawPixel(x, y, Black);
 102              		.loc 1 13 5 is_stmt 1 view .LVU24
  14:Core/Src/oled/ssd1306_tests.c **** 
 103              		.loc 1 14 9 view .LVU25
 104 0040 0022     		movs	r2, #0
 105 0042 2146     		mov	r1, r4
 106 0044 2846     		mov	r0, r5
 107 0046 FFF7FEFF 		bl	ssd1306_DrawPixel
 108              	.LVL12:
  16:Core/Src/oled/ssd1306_tests.c ****             x++;
 109              		.loc 1 16 9 view .LVU26
  16:Core/Src/oled/ssd1306_tests.c ****             x++;
 110              		.loc 1 16 11 is_stmt 0 view .LVU27
 111 004a 002C     		cmp	r4, #0
 112 004c E2D1     		bne	.L2
  16:Core/Src/oled/ssd1306_tests.c ****             x++;
 113              		.loc 1 16 21 discriminator 1 view .LVU28
 114 004e 7E2D     		cmp	r5, #126
 115 0050 E0D8     		bhi	.L2
  17:Core/Src/oled/ssd1306_tests.c ****         else if((x == 127) && (y < (SSD1306_HEIGHT-1)))
 116              		.loc 1 17 13 is_stmt 1 view .LVU29
  17:Core/Src/oled/ssd1306_tests.c ****         else if((x == 127) && (y < (SSD1306_HEIGHT-1)))
 117              		.loc 1 17 14 is_stmt 0 view .LVU30
 118 0052 0135     		adds	r5, r5, #1
 119              	.LVL13:
  17:Core/Src/oled/ssd1306_tests.c ****         else if((x == 127) && (y < (SSD1306_HEIGHT-1)))
 120              		.loc 1 17 14 view .LVU31
 121 0054 EDB2     		uxtb	r5, r5
 122              	.LVL14:
  17:Core/Src/oled/ssd1306_tests.c ****         else if((x == 127) && (y < (SSD1306_HEIGHT-1)))
 123              		.loc 1 17 14 view .LVU32
 124 0056 E3E7     		b	.L3
 125              	.L8:
  18:Core/Src/oled/ssd1306_tests.c ****             y++;
 126              		.loc 1 18 28 discriminator 1 view .LVU33
 127 0058 3E2C     		cmp	r4, #62
 128 005a DDD8     		bhi	.L4
  19:Core/Src/oled/ssd1306_tests.c ****         else if((y == (SSD1306_HEIGHT-1)) && (x > 0)) 
 129              		.loc 1 19 13 is_stmt 1 view .LVU34
  19:Core/Src/oled/ssd1306_tests.c ****         else if((y == (SSD1306_HEIGHT-1)) && (x > 0)) 
ARM GAS  /tmp/ccjX1LNs.s 			page 4


 130              		.loc 1 19 14 is_stmt 0 view .LVU35
 131 005c 0134     		adds	r4, r4, #1
 132              	.LVL15:
  19:Core/Src/oled/ssd1306_tests.c ****         else if((y == (SSD1306_HEIGHT-1)) && (x > 0)) 
 133              		.loc 1 19 14 view .LVU36
 134 005e E4B2     		uxtb	r4, r4
 135              	.LVL16:
  19:Core/Src/oled/ssd1306_tests.c ****         else if((y == (SSD1306_HEIGHT-1)) && (x > 0)) 
 136              		.loc 1 19 14 view .LVU37
 137 0060 DEE7     		b	.L3
 138              	.L9:
  20:Core/Src/oled/ssd1306_tests.c ****             x--;
 139              		.loc 1 20 43 discriminator 1 view .LVU38
 140 0062 002D     		cmp	r5, #0
 141 0064 DAD0     		beq	.L5
  21:Core/Src/oled/ssd1306_tests.c ****         else
 142              		.loc 1 21 13 is_stmt 1 view .LVU39
  21:Core/Src/oled/ssd1306_tests.c ****         else
 143              		.loc 1 21 14 is_stmt 0 view .LVU40
 144 0066 013D     		subs	r5, r5, #1
 145              	.LVL17:
  21:Core/Src/oled/ssd1306_tests.c ****         else
 146              		.loc 1 21 14 view .LVU41
 147 0068 EDB2     		uxtb	r5, r5
 148              	.LVL18:
  21:Core/Src/oled/ssd1306_tests.c ****         else
 149              		.loc 1 21 14 view .LVU42
 150 006a D9E7     		b	.L3
 151              	.L10:
  31:Core/Src/oled/ssd1306_tests.c ****    
  32:Core/Src/oled/ssd1306_tests.c ****     HAL_Delay(1000);
 152              		.loc 1 32 5 is_stmt 1 view .LVU43
 153 006c 4FF47A70 		mov	r0, #1000
 154 0070 FFF7FEFF 		bl	HAL_Delay
 155              	.LVL19:
  33:Core/Src/oled/ssd1306_tests.c **** }
 156              		.loc 1 33 1 is_stmt 0 view .LVU44
 157 0074 70BD     		pop	{r4, r5, r6, pc}
 158              		.loc 1 33 1 view .LVU45
 159              		.cfi_endproc
 160              	.LFE66:
 162              		.section	.rodata.ssd1306_TestFonts.str1.4,"aMS",%progbits,1
 163              		.align	2
 164              	.LC1:
 165 0000 466F6E74 		.ascii	"Font 16x26\000"
 165      20313678 
 165      323600
 166 000b 00       		.align	2
 167              	.LC2:
 168 000c 466F6E74 		.ascii	"Font 11x18\000"
 168      20313178 
 168      313800
 169 0017 00       		.align	2
 170              	.LC3:
 171 0018 466F6E74 		.ascii	"Font 7x10\000"
 171      20377831 
 171      3000
ARM GAS  /tmp/ccjX1LNs.s 			page 5


 172 0022 0000     		.align	2
 173              	.LC4:
 174 0024 466F6E74 		.ascii	"Font 6x8\000"
 174      20367838 
 174      00
 175              		.section	.text.ssd1306_TestFonts,"ax",%progbits
 176              		.align	1
 177              		.global	ssd1306_TestFonts
 178              		.syntax unified
 179              		.thumb
 180              		.thumb_func
 181              		.fpu softvfp
 183              	ssd1306_TestFonts:
 184              	.LFB67:
  34:Core/Src/oled/ssd1306_tests.c **** 
  35:Core/Src/oled/ssd1306_tests.c **** void ssd1306_TestFonts() {
 185              		.loc 1 35 26 is_stmt 1 view -0
 186              		.cfi_startproc
 187              		@ args = 0, pretend = 0, frame = 0
 188              		@ frame_needed = 0, uses_anonymous_args = 0
 189 0000 08B5     		push	{r3, lr}
 190              	.LCFI1:
 191              		.cfi_def_cfa_offset 8
 192              		.cfi_offset 3, -8
 193              		.cfi_offset 14, -4
  36:Core/Src/oled/ssd1306_tests.c ****     uint8_t y = 0;
 194              		.loc 1 36 5 view .LVU47
 195              	.LVL20:
  37:Core/Src/oled/ssd1306_tests.c **** 	ssd1306_Fill(Black);
 196              		.loc 1 37 2 view .LVU48
 197 0002 0020     		movs	r0, #0
 198 0004 FFF7FEFF 		bl	ssd1306_Fill
 199              	.LVL21:
  38:Core/Src/oled/ssd1306_tests.c **** 
  39:Core/Src/oled/ssd1306_tests.c **** 	#ifdef SSD1306_INCLUDE_FONT_16x26
  40:Core/Src/oled/ssd1306_tests.c ****     ssd1306_SetCursor(2, y);
 200              		.loc 1 40 5 view .LVU49
 201 0008 0021     		movs	r1, #0
 202 000a 0220     		movs	r0, #2
 203 000c FFF7FEFF 		bl	ssd1306_SetCursor
 204              	.LVL22:
  41:Core/Src/oled/ssd1306_tests.c ****     ssd1306_WriteString("Font 16x26", Font_16x26, White);
 205              		.loc 1 41 5 view .LVU50
 206 0010 134A     		ldr	r2, .L13
 207 0012 0123     		movs	r3, #1
 208 0014 06CA     		ldm	r2, {r1, r2}
 209 0016 1348     		ldr	r0, .L13+4
 210 0018 FFF7FEFF 		bl	ssd1306_WriteString
 211              	.LVL23:
  42:Core/Src/oled/ssd1306_tests.c ****     y += 26;
 212              		.loc 1 42 5 view .LVU51
  43:Core/Src/oled/ssd1306_tests.c **** 	#endif
  44:Core/Src/oled/ssd1306_tests.c **** 
  45:Core/Src/oled/ssd1306_tests.c **** 	#ifdef SSD1306_INCLUDE_FONT_11x18
  46:Core/Src/oled/ssd1306_tests.c ****     ssd1306_SetCursor(2, y);
 213              		.loc 1 46 5 view .LVU52
 214 001c 1A21     		movs	r1, #26
ARM GAS  /tmp/ccjX1LNs.s 			page 6


 215 001e 0220     		movs	r0, #2
 216 0020 FFF7FEFF 		bl	ssd1306_SetCursor
 217              	.LVL24:
  47:Core/Src/oled/ssd1306_tests.c ****     ssd1306_WriteString("Font 11x18", Font_11x18, White);
 218              		.loc 1 47 5 view .LVU53
 219 0024 104A     		ldr	r2, .L13+8
 220 0026 0123     		movs	r3, #1
 221 0028 06CA     		ldm	r2, {r1, r2}
 222 002a 1048     		ldr	r0, .L13+12
 223 002c FFF7FEFF 		bl	ssd1306_WriteString
 224              	.LVL25:
  48:Core/Src/oled/ssd1306_tests.c ****     y += 18;
 225              		.loc 1 48 5 view .LVU54
  49:Core/Src/oled/ssd1306_tests.c **** 	#endif
  50:Core/Src/oled/ssd1306_tests.c **** 
  51:Core/Src/oled/ssd1306_tests.c **** 	#ifdef SSD1306_INCLUDE_FONT_7x10
  52:Core/Src/oled/ssd1306_tests.c ****     ssd1306_SetCursor(2, y);
 226              		.loc 1 52 5 view .LVU55
 227 0030 2C21     		movs	r1, #44
 228 0032 0220     		movs	r0, #2
 229 0034 FFF7FEFF 		bl	ssd1306_SetCursor
 230              	.LVL26:
  53:Core/Src/oled/ssd1306_tests.c ****     ssd1306_WriteString("Font 7x10", Font_7x10, White);
 231              		.loc 1 53 5 view .LVU56
 232 0038 0D4A     		ldr	r2, .L13+16
 233 003a 0123     		movs	r3, #1
 234 003c 06CA     		ldm	r2, {r1, r2}
 235 003e 0D48     		ldr	r0, .L13+20
 236 0040 FFF7FEFF 		bl	ssd1306_WriteString
 237              	.LVL27:
  54:Core/Src/oled/ssd1306_tests.c ****     y += 10;
 238              		.loc 1 54 5 view .LVU57
  55:Core/Src/oled/ssd1306_tests.c **** 	#endif
  56:Core/Src/oled/ssd1306_tests.c **** 
  57:Core/Src/oled/ssd1306_tests.c **** 	#ifdef SSD1306_INCLUDE_FONT_6x8
  58:Core/Src/oled/ssd1306_tests.c ****     ssd1306_SetCursor(2, y);
 239              		.loc 1 58 5 view .LVU58
 240 0044 3621     		movs	r1, #54
 241 0046 0220     		movs	r0, #2
 242 0048 FFF7FEFF 		bl	ssd1306_SetCursor
 243              	.LVL28:
  59:Core/Src/oled/ssd1306_tests.c ****     ssd1306_WriteString("Font 6x8", Font_6x8, White);
 244              		.loc 1 59 5 view .LVU59
 245 004c 0A4A     		ldr	r2, .L13+24
 246 004e 0123     		movs	r3, #1
 247 0050 06CA     		ldm	r2, {r1, r2}
 248 0052 0A48     		ldr	r0, .L13+28
 249 0054 FFF7FEFF 		bl	ssd1306_WriteString
 250              	.LVL29:
  60:Core/Src/oled/ssd1306_tests.c **** 	#endif
  61:Core/Src/oled/ssd1306_tests.c **** 
  62:Core/Src/oled/ssd1306_tests.c ****     ssd1306_UpdateScreen();
 251              		.loc 1 62 5 view .LVU60
 252 0058 FFF7FEFF 		bl	ssd1306_UpdateScreen
 253              	.LVL30:
  63:Core/Src/oled/ssd1306_tests.c **** }
 254              		.loc 1 63 1 is_stmt 0 view .LVU61
ARM GAS  /tmp/ccjX1LNs.s 			page 7


 255 005c 08BD     		pop	{r3, pc}
 256              	.L14:
 257 005e 00BF     		.align	2
 258              	.L13:
 259 0060 00000000 		.word	Font_16x26
 260 0064 00000000 		.word	.LC1
 261 0068 00000000 		.word	Font_11x18
 262 006c 0C000000 		.word	.LC2
 263 0070 00000000 		.word	Font_7x10
 264 0074 18000000 		.word	.LC3
 265 0078 00000000 		.word	Font_6x8
 266 007c 24000000 		.word	.LC4
 267              		.cfi_endproc
 268              	.LFE67:
 270              		.section	.rodata.ssd1306_TestFPS.str1.4,"aMS",%progbits,1
 271              		.align	2
 272              	.LC6:
 273 0000 54657374 		.ascii	"Testing...\000"
 273      696E672E 
 273      2E2E00
 274              		.global	__aeabi_i2f
 275              		.global	__aeabi_f2d
 276              		.global	__aeabi_ui2d
 277              		.global	__aeabi_ddiv
 278              		.global	__aeabi_d2iz
 279 000b 00       		.align	2
 280              	.LC7:
 281 000c 7E256420 		.ascii	"~%d FPS\000"
 281      46505300 
 282              		.align	2
 283              	.LC5:
 284 0014 41424344 		.ascii	"ABCDEFGHIJK\000"
 284      45464748 
 284      494A4B00 
 285              		.section	.text.ssd1306_TestFPS,"ax",%progbits
 286              		.align	1
 287              		.global	ssd1306_TestFPS
 288              		.syntax unified
 289              		.thumb
 290              		.thumb_func
 291              		.fpu softvfp
 293              	ssd1306_TestFPS:
 294              	.LFB68:
  64:Core/Src/oled/ssd1306_tests.c **** 
  65:Core/Src/oled/ssd1306_tests.c **** void ssd1306_TestFPS() {
 295              		.loc 1 65 24 is_stmt 1 view -0
 296              		.cfi_startproc
 297              		@ args = 0, pretend = 0, frame = 80
 298              		@ frame_needed = 0, uses_anonymous_args = 0
 299 0000 F0B5     		push	{r4, r5, r6, r7, lr}
 300              	.LCFI2:
 301              		.cfi_def_cfa_offset 20
 302              		.cfi_offset 4, -20
 303              		.cfi_offset 5, -16
 304              		.cfi_offset 6, -12
 305              		.cfi_offset 7, -8
 306              		.cfi_offset 14, -4
ARM GAS  /tmp/ccjX1LNs.s 			page 8


 307 0002 95B0     		sub	sp, sp, #84
 308              	.LCFI3:
 309              		.cfi_def_cfa_offset 104
  66:Core/Src/oled/ssd1306_tests.c ****     ssd1306_Fill(White);
 310              		.loc 1 66 5 view .LVU63
 311 0004 0120     		movs	r0, #1
 312 0006 FFF7FEFF 		bl	ssd1306_Fill
 313              	.LVL31:
  67:Core/Src/oled/ssd1306_tests.c ****    
  68:Core/Src/oled/ssd1306_tests.c ****     uint32_t start = HAL_GetTick();
 314              		.loc 1 68 5 view .LVU64
 315              		.loc 1 68 22 is_stmt 0 view .LVU65
 316 000a FFF7FEFF 		bl	HAL_GetTick
 317              	.LVL32:
 318 000e 0646     		mov	r6, r0
 319              	.LVL33:
  69:Core/Src/oled/ssd1306_tests.c ****     uint32_t end = start;
 320              		.loc 1 69 5 is_stmt 1 view .LVU66
  70:Core/Src/oled/ssd1306_tests.c ****     int fps = 0;
 321              		.loc 1 70 5 view .LVU67
  71:Core/Src/oled/ssd1306_tests.c ****     char message[] = "ABCDEFGHIJK";
 322              		.loc 1 71 5 view .LVU68
 323              		.loc 1 71 10 is_stmt 0 view .LVU69
 324 0010 2F4B     		ldr	r3, .L18
 325 0012 93E80700 		ldm	r3, {r0, r1, r2}
 326              	.LVL34:
 327              		.loc 1 71 10 view .LVU70
 328 0016 14AB     		add	r3, sp, #80
 329 0018 03E90700 		stmdb	r3, {r0, r1, r2}
  72:Core/Src/oled/ssd1306_tests.c ****    
  73:Core/Src/oled/ssd1306_tests.c ****     ssd1306_SetCursor(2,0);
 330              		.loc 1 73 5 is_stmt 1 view .LVU71
 331 001c 0021     		movs	r1, #0
 332 001e 0220     		movs	r0, #2
 333 0020 FFF7FEFF 		bl	ssd1306_SetCursor
 334              	.LVL35:
  74:Core/Src/oled/ssd1306_tests.c ****     ssd1306_WriteString("Testing...", Font_11x18, Black);
 335              		.loc 1 74 5 view .LVU72
 336 0024 2B4A     		ldr	r2, .L18+4
 337 0026 0023     		movs	r3, #0
 338 0028 06CA     		ldm	r2, {r1, r2}
 339 002a 2B48     		ldr	r0, .L18+8
 340 002c FFF7FEFF 		bl	ssd1306_WriteString
 341              	.LVL36:
  70:Core/Src/oled/ssd1306_tests.c ****     char message[] = "ABCDEFGHIJK";
 342              		.loc 1 70 9 is_stmt 0 view .LVU73
 343 0030 0025     		movs	r5, #0
 344              	.LVL37:
 345              	.L16:
  75:Core/Src/oled/ssd1306_tests.c ****    
  76:Core/Src/oled/ssd1306_tests.c ****     do {
 346              		.loc 1 76 5 is_stmt 1 discriminator 1 view .LVU74
 347              	.LBB2:
  77:Core/Src/oled/ssd1306_tests.c ****         ssd1306_SetCursor(2, 18);
 348              		.loc 1 77 9 discriminator 1 view .LVU75
 349 0032 1221     		movs	r1, #18
 350 0034 0220     		movs	r0, #2
ARM GAS  /tmp/ccjX1LNs.s 			page 9


 351 0036 FFF7FEFF 		bl	ssd1306_SetCursor
 352              	.LVL38:
  78:Core/Src/oled/ssd1306_tests.c ****         ssd1306_WriteString(message, Font_11x18, Black);
 353              		.loc 1 78 9 discriminator 1 view .LVU76
 354 003a 264A     		ldr	r2, .L18+4
 355 003c 0023     		movs	r3, #0
 356 003e 06CA     		ldm	r2, {r1, r2}
 357 0040 11A8     		add	r0, sp, #68
 358 0042 FFF7FEFF 		bl	ssd1306_WriteString
 359              	.LVL39:
  79:Core/Src/oled/ssd1306_tests.c ****         ssd1306_UpdateScreen();
 360              		.loc 1 79 9 discriminator 1 view .LVU77
 361 0046 FFF7FEFF 		bl	ssd1306_UpdateScreen
 362              	.LVL40:
  80:Core/Src/oled/ssd1306_tests.c ****        
  81:Core/Src/oled/ssd1306_tests.c ****         char ch = message[0];
 363              		.loc 1 81 9 discriminator 1 view .LVU78
 364              		.loc 1 81 14 is_stmt 0 discriminator 1 view .LVU79
 365 004a 9DF84440 		ldrb	r4, [sp, #68]	@ zero_extendqisi2
 366              	.LVL41:
  82:Core/Src/oled/ssd1306_tests.c ****         memmove(message, message+1, sizeof(message)-2);
 367              		.loc 1 82 9 is_stmt 1 discriminator 1 view .LVU80
 368 004e 0A22     		movs	r2, #10
 369 0050 0DF14501 		add	r1, sp, #69
 370 0054 11A8     		add	r0, sp, #68
 371 0056 FFF7FEFF 		bl	memmove
 372              	.LVL42:
  83:Core/Src/oled/ssd1306_tests.c ****         message[sizeof(message)-2] = ch;
 373              		.loc 1 83 9 discriminator 1 view .LVU81
 374              		.loc 1 83 36 is_stmt 0 discriminator 1 view .LVU82
 375 005a 8DF84E40 		strb	r4, [sp, #78]
  84:Core/Src/oled/ssd1306_tests.c **** 
  85:Core/Src/oled/ssd1306_tests.c ****         fps++;
 376              		.loc 1 85 9 is_stmt 1 discriminator 1 view .LVU83
 377              		.loc 1 85 12 is_stmt 0 discriminator 1 view .LVU84
 378 005e 0135     		adds	r5, r5, #1
 379              	.LVL43:
  86:Core/Src/oled/ssd1306_tests.c ****         end = HAL_GetTick();
 380              		.loc 1 86 9 is_stmt 1 discriminator 1 view .LVU85
 381              		.loc 1 86 15 is_stmt 0 discriminator 1 view .LVU86
 382 0060 FFF7FEFF 		bl	HAL_GetTick
 383              	.LVL44:
 384              		.loc 1 86 15 discriminator 1 view .LVU87
 385              	.LBE2:
  87:Core/Src/oled/ssd1306_tests.c ****     } while((end - start) < 5000);
 386              		.loc 1 87 12 is_stmt 1 discriminator 1 view .LVU88
 387              		.loc 1 87 18 is_stmt 0 discriminator 1 view .LVU89
 388 0064 841B     		subs	r4, r0, r6
 389              	.LVL45:
 390              		.loc 1 87 5 discriminator 1 view .LVU90
 391 0066 41F28733 		movw	r3, #4999
 392 006a 9C42     		cmp	r4, r3
 393 006c E1D9     		bls	.L16
  88:Core/Src/oled/ssd1306_tests.c ****    
  89:Core/Src/oled/ssd1306_tests.c ****     HAL_Delay(1000);
 394              		.loc 1 89 5 is_stmt 1 view .LVU91
 395 006e 4FF47A70 		mov	r0, #1000
ARM GAS  /tmp/ccjX1LNs.s 			page 10


 396              	.LVL46:
 397              		.loc 1 89 5 is_stmt 0 view .LVU92
 398 0072 FFF7FEFF 		bl	HAL_Delay
 399              	.LVL47:
  90:Core/Src/oled/ssd1306_tests.c **** 
  91:Core/Src/oled/ssd1306_tests.c ****     char buff[64];
 400              		.loc 1 91 5 is_stmt 1 view .LVU93
  92:Core/Src/oled/ssd1306_tests.c ****     fps = (float)fps / ((end - start) / 1000.0);
 401              		.loc 1 92 5 view .LVU94
 402              		.loc 1 92 11 is_stmt 0 view .LVU95
 403 0076 2846     		mov	r0, r5
 404 0078 FFF7FEFF 		bl	__aeabi_i2f
 405              	.LVL48:
 406 007c FFF7FEFF 		bl	__aeabi_f2d
 407              	.LVL49:
 408 0080 0646     		mov	r6, r0
 409              	.LVL50:
 410              		.loc 1 92 11 view .LVU96
 411 0082 0F46     		mov	r7, r1
 412              		.loc 1 92 39 view .LVU97
 413 0084 2046     		mov	r0, r4
 414 0086 FFF7FEFF 		bl	__aeabi_ui2d
 415              	.LVL51:
 416 008a 0022     		movs	r2, #0
 417 008c 134B     		ldr	r3, .L18+12
 418 008e FFF7FEFF 		bl	__aeabi_ddiv
 419              	.LVL52:
 420 0092 0246     		mov	r2, r0
 421 0094 0B46     		mov	r3, r1
 422              		.loc 1 92 22 view .LVU98
 423 0096 3046     		mov	r0, r6
 424 0098 3946     		mov	r1, r7
 425 009a FFF7FEFF 		bl	__aeabi_ddiv
 426              	.LVL53:
 427              		.loc 1 92 9 view .LVU99
 428 009e FFF7FEFF 		bl	__aeabi_d2iz
 429              	.LVL54:
 430 00a2 0346     		mov	r3, r0
 431              	.LVL55:
  93:Core/Src/oled/ssd1306_tests.c ****     snprintf(buff, sizeof(buff), "~%d FPS", fps);
 432              		.loc 1 93 5 is_stmt 1 view .LVU100
 433 00a4 0E4A     		ldr	r2, .L18+16
 434 00a6 4021     		movs	r1, #64
 435 00a8 01A8     		add	r0, sp, #4
 436              	.LVL56:
 437              		.loc 1 93 5 is_stmt 0 view .LVU101
 438 00aa FFF7FEFF 		bl	snprintf
 439              	.LVL57:
  94:Core/Src/oled/ssd1306_tests.c ****    
  95:Core/Src/oled/ssd1306_tests.c ****     ssd1306_Fill(White);
 440              		.loc 1 95 5 is_stmt 1 view .LVU102
 441 00ae 0120     		movs	r0, #1
 442 00b0 FFF7FEFF 		bl	ssd1306_Fill
 443              	.LVL58:
  96:Core/Src/oled/ssd1306_tests.c ****     ssd1306_SetCursor(2, 2);
 444              		.loc 1 96 5 view .LVU103
 445 00b4 0221     		movs	r1, #2
ARM GAS  /tmp/ccjX1LNs.s 			page 11


 446 00b6 0846     		mov	r0, r1
 447 00b8 FFF7FEFF 		bl	ssd1306_SetCursor
 448              	.LVL59:
  97:Core/Src/oled/ssd1306_tests.c ****     ssd1306_WriteString(buff, Font_11x18, Black);
 449              		.loc 1 97 5 view .LVU104
 450 00bc 054A     		ldr	r2, .L18+4
 451 00be 0023     		movs	r3, #0
 452 00c0 06CA     		ldm	r2, {r1, r2}
 453 00c2 01A8     		add	r0, sp, #4
 454 00c4 FFF7FEFF 		bl	ssd1306_WriteString
 455              	.LVL60:
  98:Core/Src/oled/ssd1306_tests.c ****     ssd1306_UpdateScreen();
 456              		.loc 1 98 5 view .LVU105
 457 00c8 FFF7FEFF 		bl	ssd1306_UpdateScreen
 458              	.LVL61:
  99:Core/Src/oled/ssd1306_tests.c **** }
 459              		.loc 1 99 1 is_stmt 0 view .LVU106
 460 00cc 15B0     		add	sp, sp, #84
 461              	.LCFI4:
 462              		.cfi_def_cfa_offset 20
 463              		@ sp needed
 464 00ce F0BD     		pop	{r4, r5, r6, r7, pc}
 465              	.L19:
 466              		.align	2
 467              	.L18:
 468 00d0 14000000 		.word	.LC5
 469 00d4 00000000 		.word	Font_11x18
 470 00d8 00000000 		.word	.LC6
 471 00dc 00408F40 		.word	1083129856
 472 00e0 0C000000 		.word	.LC7
 473              		.cfi_endproc
 474              	.LFE68:
 476              		.section	.text.ssd1306_TestLine,"ax",%progbits
 477              		.align	1
 478              		.global	ssd1306_TestLine
 479              		.syntax unified
 480              		.thumb
 481              		.thumb_func
 482              		.fpu softvfp
 484              	ssd1306_TestLine:
 485              	.LFB69:
 100:Core/Src/oled/ssd1306_tests.c **** 
 101:Core/Src/oled/ssd1306_tests.c **** void ssd1306_TestLine() {
 486              		.loc 1 101 25 is_stmt 1 view -0
 487              		.cfi_startproc
 488              		@ args = 0, pretend = 0, frame = 0
 489              		@ frame_needed = 0, uses_anonymous_args = 0
 490 0000 10B5     		push	{r4, lr}
 491              	.LCFI5:
 492              		.cfi_def_cfa_offset 8
 493              		.cfi_offset 4, -8
 494              		.cfi_offset 14, -4
 495 0002 82B0     		sub	sp, sp, #8
 496              	.LCFI6:
 497              		.cfi_def_cfa_offset 16
 102:Core/Src/oled/ssd1306_tests.c **** 
 103:Core/Src/oled/ssd1306_tests.c ****   ssd1306_Line(1,1,SSD1306_WIDTH - 1,SSD1306_HEIGHT - 1,White);
ARM GAS  /tmp/ccjX1LNs.s 			page 12


 498              		.loc 1 103 3 view .LVU108
 499 0004 0124     		movs	r4, #1
 500 0006 0094     		str	r4, [sp]
 501 0008 3F23     		movs	r3, #63
 502 000a 7F22     		movs	r2, #127
 503 000c 2146     		mov	r1, r4
 504 000e 2046     		mov	r0, r4
 505 0010 FFF7FEFF 		bl	ssd1306_Line
 506              	.LVL62:
 104:Core/Src/oled/ssd1306_tests.c ****   ssd1306_Line(SSD1306_WIDTH - 1,1,1,SSD1306_HEIGHT - 1,White);
 507              		.loc 1 104 3 view .LVU109
 508 0014 0094     		str	r4, [sp]
 509 0016 3F23     		movs	r3, #63
 510 0018 2246     		mov	r2, r4
 511 001a 2146     		mov	r1, r4
 512 001c 7F20     		movs	r0, #127
 513 001e FFF7FEFF 		bl	ssd1306_Line
 514              	.LVL63:
 105:Core/Src/oled/ssd1306_tests.c ****   ssd1306_UpdateScreen();
 515              		.loc 1 105 3 view .LVU110
 516 0022 FFF7FEFF 		bl	ssd1306_UpdateScreen
 517              	.LVL64:
 106:Core/Src/oled/ssd1306_tests.c ****   return;
 518              		.loc 1 106 3 view .LVU111
 107:Core/Src/oled/ssd1306_tests.c **** }
 519              		.loc 1 107 1 is_stmt 0 view .LVU112
 520 0026 02B0     		add	sp, sp, #8
 521              	.LCFI7:
 522              		.cfi_def_cfa_offset 8
 523              		@ sp needed
 524 0028 10BD     		pop	{r4, pc}
 525              		.cfi_endproc
 526              	.LFE69:
 528              		.section	.text.ssd1306_TestRectangle,"ax",%progbits
 529              		.align	1
 530              		.global	ssd1306_TestRectangle
 531              		.syntax unified
 532              		.thumb
 533              		.thumb_func
 534              		.fpu softvfp
 536              	ssd1306_TestRectangle:
 537              	.LFB70:
 108:Core/Src/oled/ssd1306_tests.c **** 
 109:Core/Src/oled/ssd1306_tests.c **** void ssd1306_TestRectangle() {
 538              		.loc 1 109 30 is_stmt 1 view -0
 539              		.cfi_startproc
 540              		@ args = 0, pretend = 0, frame = 0
 541              		@ frame_needed = 0, uses_anonymous_args = 0
 542 0000 10B5     		push	{r4, lr}
 543              	.LCFI8:
 544              		.cfi_def_cfa_offset 8
 545              		.cfi_offset 4, -8
 546              		.cfi_offset 14, -4
 547 0002 82B0     		sub	sp, sp, #8
 548              	.LCFI9:
 549              		.cfi_def_cfa_offset 16
 110:Core/Src/oled/ssd1306_tests.c ****   uint32_t delta;
ARM GAS  /tmp/ccjX1LNs.s 			page 13


 550              		.loc 1 110 3 view .LVU114
 111:Core/Src/oled/ssd1306_tests.c **** 
 112:Core/Src/oled/ssd1306_tests.c ****   for(delta = 0; delta < 5; delta ++) {
 551              		.loc 1 112 3 view .LVU115
 552              	.LVL65:
 553              		.loc 1 112 13 is_stmt 0 view .LVU116
 554 0004 0024     		movs	r4, #0
 555              	.LVL66:
 556              	.L23:
 557              		.loc 1 112 18 is_stmt 1 discriminator 1 view .LVU117
 558              		.loc 1 112 3 is_stmt 0 discriminator 1 view .LVU118
 559 0006 042C     		cmp	r4, #4
 560 0008 11D8     		bhi	.L26
 113:Core/Src/oled/ssd1306_tests.c ****     ssd1306_DrawRectangle(1 + (5*delta),1 + (5*delta) ,SSD1306_WIDTH-1 - (5*delta),SSD1306_HEIGHT-1
 561              		.loc 1 113 5 is_stmt 1 discriminator 3 view .LVU119
 562 000a 04EB8402 		add	r2, r4, r4, lsl #2
 563 000e D2B2     		uxtb	r2, r2
 564 0010 501C     		adds	r0, r2, #1
 565 0012 C0B2     		uxtb	r0, r0
 566 0014 C2F13F03 		rsb	r3, r2, #63
 567 0018 C2F17F02 		rsb	r2, r2, #127
 568 001c 0121     		movs	r1, #1
 569 001e 0091     		str	r1, [sp]
 570 0020 DBB2     		uxtb	r3, r3
 571 0022 D2B2     		uxtb	r2, r2
 572 0024 0146     		mov	r1, r0
 573 0026 FFF7FEFF 		bl	ssd1306_DrawRectangle
 574              	.LVL67:
 112:Core/Src/oled/ssd1306_tests.c ****     ssd1306_DrawRectangle(1 + (5*delta),1 + (5*delta) ,SSD1306_WIDTH-1 - (5*delta),SSD1306_HEIGHT-1
 575              		.loc 1 112 29 discriminator 3 view .LVU120
 112:Core/Src/oled/ssd1306_tests.c ****     ssd1306_DrawRectangle(1 + (5*delta),1 + (5*delta) ,SSD1306_WIDTH-1 - (5*delta),SSD1306_HEIGHT-1
 576              		.loc 1 112 35 is_stmt 0 discriminator 3 view .LVU121
 577 002a 0134     		adds	r4, r4, #1
 578              	.LVL68:
 112:Core/Src/oled/ssd1306_tests.c ****     ssd1306_DrawRectangle(1 + (5*delta),1 + (5*delta) ,SSD1306_WIDTH-1 - (5*delta),SSD1306_HEIGHT-1
 579              		.loc 1 112 35 discriminator 3 view .LVU122
 580 002c EBE7     		b	.L23
 581              	.L26:
 114:Core/Src/oled/ssd1306_tests.c ****   }
 115:Core/Src/oled/ssd1306_tests.c ****   ssd1306_UpdateScreen();
 582              		.loc 1 115 3 is_stmt 1 view .LVU123
 583 002e FFF7FEFF 		bl	ssd1306_UpdateScreen
 584              	.LVL69:
 116:Core/Src/oled/ssd1306_tests.c ****   return;
 585              		.loc 1 116 3 view .LVU124
 117:Core/Src/oled/ssd1306_tests.c **** }
 586              		.loc 1 117 1 is_stmt 0 view .LVU125
 587 0032 02B0     		add	sp, sp, #8
 588              	.LCFI10:
 589              		.cfi_def_cfa_offset 8
 590              		@ sp needed
 591 0034 10BD     		pop	{r4, pc}
 592              		.loc 1 117 1 view .LVU126
 593              		.cfi_endproc
 594              	.LFE70:
 596              		.section	.text.ssd1306_TestCircle,"ax",%progbits
 597              		.align	1
ARM GAS  /tmp/ccjX1LNs.s 			page 14


 598              		.global	ssd1306_TestCircle
 599              		.syntax unified
 600              		.thumb
 601              		.thumb_func
 602              		.fpu softvfp
 604              	ssd1306_TestCircle:
 605              	.LFB71:
 118:Core/Src/oled/ssd1306_tests.c **** 
 119:Core/Src/oled/ssd1306_tests.c **** void ssd1306_TestCircle() {
 606              		.loc 1 119 27 is_stmt 1 view -0
 607              		.cfi_startproc
 608              		@ args = 0, pretend = 0, frame = 0
 609              		@ frame_needed = 0, uses_anonymous_args = 0
 610 0000 10B5     		push	{r4, lr}
 611              	.LCFI11:
 612              		.cfi_def_cfa_offset 8
 613              		.cfi_offset 4, -8
 614              		.cfi_offset 14, -4
 120:Core/Src/oled/ssd1306_tests.c ****   uint32_t delta;
 615              		.loc 1 120 3 view .LVU128
 121:Core/Src/oled/ssd1306_tests.c **** 
 122:Core/Src/oled/ssd1306_tests.c ****   for(delta = 0; delta < 5; delta ++) {
 616              		.loc 1 122 3 view .LVU129
 617              	.LVL70:
 618              		.loc 1 122 13 is_stmt 0 view .LVU130
 619 0002 0024     		movs	r4, #0
 620              	.LVL71:
 621              	.L28:
 622              		.loc 1 122 18 is_stmt 1 discriminator 1 view .LVU131
 623              		.loc 1 122 3 is_stmt 0 discriminator 1 view .LVU132
 624 0004 042C     		cmp	r4, #4
 625 0006 0CD8     		bhi	.L31
 123:Core/Src/oled/ssd1306_tests.c ****     ssd1306_DrawCircle(20* delta+30, 15, 10, White);
 626              		.loc 1 123 5 is_stmt 1 discriminator 3 view .LVU133
 627 0008 04EB8403 		add	r3, r4, r4, lsl #2
 628 000c 9800     		lsls	r0, r3, #2
 629 000e 1E30     		adds	r0, r0, #30
 630 0010 0123     		movs	r3, #1
 631 0012 0A22     		movs	r2, #10
 632 0014 0F21     		movs	r1, #15
 633 0016 00F0FE00 		and	r0, r0, #254
 634 001a FFF7FEFF 		bl	ssd1306_DrawCircle
 635              	.LVL72:
 122:Core/Src/oled/ssd1306_tests.c ****     ssd1306_DrawCircle(20* delta+30, 15, 10, White);
 636              		.loc 1 122 29 discriminator 3 view .LVU134
 122:Core/Src/oled/ssd1306_tests.c ****     ssd1306_DrawCircle(20* delta+30, 15, 10, White);
 637              		.loc 1 122 35 is_stmt 0 discriminator 3 view .LVU135
 638 001e 0134     		adds	r4, r4, #1
 639              	.LVL73:
 122:Core/Src/oled/ssd1306_tests.c ****     ssd1306_DrawCircle(20* delta+30, 15, 10, White);
 640              		.loc 1 122 35 discriminator 3 view .LVU136
 641 0020 F0E7     		b	.L28
 642              	.L31:
 124:Core/Src/oled/ssd1306_tests.c ****   }
 125:Core/Src/oled/ssd1306_tests.c ****   ssd1306_UpdateScreen();
 643              		.loc 1 125 3 is_stmt 1 view .LVU137
 644 0022 FFF7FEFF 		bl	ssd1306_UpdateScreen
ARM GAS  /tmp/ccjX1LNs.s 			page 15


 645              	.LVL74:
 126:Core/Src/oled/ssd1306_tests.c ****   return;
 646              		.loc 1 126 3 view .LVU138
 127:Core/Src/oled/ssd1306_tests.c **** }
 647              		.loc 1 127 1 is_stmt 0 view .LVU139
 648 0026 10BD     		pop	{r4, pc}
 649              		.loc 1 127 1 view .LVU140
 650              		.cfi_endproc
 651              	.LFE71:
 653              		.section	.text.ssd1306_TestArc,"ax",%progbits
 654              		.align	1
 655              		.global	ssd1306_TestArc
 656              		.syntax unified
 657              		.thumb
 658              		.thumb_func
 659              		.fpu softvfp
 661              	ssd1306_TestArc:
 662              	.LFB72:
 128:Core/Src/oled/ssd1306_tests.c **** 
 129:Core/Src/oled/ssd1306_tests.c **** void ssd1306_TestArc() {
 663              		.loc 1 129 24 is_stmt 1 view -0
 664              		.cfi_startproc
 665              		@ args = 0, pretend = 0, frame = 0
 666              		@ frame_needed = 0, uses_anonymous_args = 0
 667 0000 00B5     		push	{lr}
 668              	.LCFI12:
 669              		.cfi_def_cfa_offset 4
 670              		.cfi_offset 14, -4
 671 0002 83B0     		sub	sp, sp, #12
 672              	.LCFI13:
 673              		.cfi_def_cfa_offset 16
 130:Core/Src/oled/ssd1306_tests.c ****   ssd1306_DrawArc(30, 30, 30, 20, 270, White);
 674              		.loc 1 130 3 view .LVU142
 675 0004 0123     		movs	r3, #1
 676 0006 0193     		str	r3, [sp, #4]
 677 0008 4FF48773 		mov	r3, #270
 678 000c 0093     		str	r3, [sp]
 679 000e 1423     		movs	r3, #20
 680 0010 1E22     		movs	r2, #30
 681 0012 1146     		mov	r1, r2
 682 0014 1046     		mov	r0, r2
 683 0016 FFF7FEFF 		bl	ssd1306_DrawArc
 684              	.LVL75:
 131:Core/Src/oled/ssd1306_tests.c ****   ssd1306_UpdateScreen();
 685              		.loc 1 131 3 view .LVU143
 686 001a FFF7FEFF 		bl	ssd1306_UpdateScreen
 687              	.LVL76:
 132:Core/Src/oled/ssd1306_tests.c ****   return;
 688              		.loc 1 132 3 view .LVU144
 133:Core/Src/oled/ssd1306_tests.c **** }
 689              		.loc 1 133 1 is_stmt 0 view .LVU145
 690 001e 03B0     		add	sp, sp, #12
 691              	.LCFI14:
 692              		.cfi_def_cfa_offset 4
 693              		@ sp needed
 694 0020 5DF804FB 		ldr	pc, [sp], #4
 695              		.cfi_endproc
ARM GAS  /tmp/ccjX1LNs.s 			page 16


 696              	.LFE72:
 698              		.section	.text.ssd1306_TestPolyline,"ax",%progbits
 699              		.align	1
 700              		.global	ssd1306_TestPolyline
 701              		.syntax unified
 702              		.thumb
 703              		.thumb_func
 704              		.fpu softvfp
 706              	ssd1306_TestPolyline:
 707              	.LFB73:
 134:Core/Src/oled/ssd1306_tests.c **** 
 135:Core/Src/oled/ssd1306_tests.c **** void ssd1306_TestPolyline() {
 708              		.loc 1 135 29 is_stmt 1 view -0
 709              		.cfi_startproc
 710              		@ args = 0, pretend = 0, frame = 16
 711              		@ frame_needed = 0, uses_anonymous_args = 0
 712 0000 10B5     		push	{r4, lr}
 713              	.LCFI15:
 714              		.cfi_def_cfa_offset 8
 715              		.cfi_offset 4, -8
 716              		.cfi_offset 14, -4
 717 0002 84B0     		sub	sp, sp, #16
 718              	.LCFI16:
 719              		.cfi_def_cfa_offset 24
 136:Core/Src/oled/ssd1306_tests.c ****   SSD1306_VERTEX loc_vertex[] =
 720              		.loc 1 136 3 view .LVU147
 721              		.loc 1 136 18 is_stmt 0 view .LVU148
 722 0004 064B     		ldr	r3, .L36
 723 0006 6C46     		mov	r4, sp
 724 0008 0FCB     		ldm	r3, {r0, r1, r2, r3}
 725 000a 07C4     		stmia	r4!, {r0, r1, r2}
 726 000c 2380     		strh	r3, [r4]	@ movhi
 137:Core/Src/oled/ssd1306_tests.c ****   {
 138:Core/Src/oled/ssd1306_tests.c ****       {35,40},
 139:Core/Src/oled/ssd1306_tests.c ****       {40,20},
 140:Core/Src/oled/ssd1306_tests.c ****       {45,28},
 141:Core/Src/oled/ssd1306_tests.c ****       {50,10},
 142:Core/Src/oled/ssd1306_tests.c ****       {45,16},
 143:Core/Src/oled/ssd1306_tests.c ****       {50,10},
 144:Core/Src/oled/ssd1306_tests.c ****       {53,16}
 145:Core/Src/oled/ssd1306_tests.c ****   };
 146:Core/Src/oled/ssd1306_tests.c **** 
 147:Core/Src/oled/ssd1306_tests.c ****   ssd1306_Polyline(loc_vertex,sizeof(loc_vertex)/sizeof(loc_vertex[0]),White);
 727              		.loc 1 147 3 is_stmt 1 view .LVU149
 728 000e 0122     		movs	r2, #1
 729 0010 0721     		movs	r1, #7
 730 0012 6846     		mov	r0, sp
 731 0014 FFF7FEFF 		bl	ssd1306_Polyline
 732              	.LVL77:
 148:Core/Src/oled/ssd1306_tests.c ****   ssd1306_UpdateScreen();
 733              		.loc 1 148 3 view .LVU150
 734 0018 FFF7FEFF 		bl	ssd1306_UpdateScreen
 735              	.LVL78:
 149:Core/Src/oled/ssd1306_tests.c ****   return;
 736              		.loc 1 149 3 view .LVU151
 150:Core/Src/oled/ssd1306_tests.c **** }
 737              		.loc 1 150 1 is_stmt 0 view .LVU152
ARM GAS  /tmp/ccjX1LNs.s 			page 17


 738 001c 04B0     		add	sp, sp, #16
 739              	.LCFI17:
 740              		.cfi_def_cfa_offset 8
 741              		@ sp needed
 742 001e 10BD     		pop	{r4, pc}
 743              	.L37:
 744              		.align	2
 745              	.L36:
 746 0020 00000000 		.word	.LANCHOR0
 747              		.cfi_endproc
 748              	.LFE73:
 750              		.section	.text.ssd1306_TestAll,"ax",%progbits
 751              		.align	1
 752              		.global	ssd1306_TestAll
 753              		.syntax unified
 754              		.thumb
 755              		.thumb_func
 756              		.fpu softvfp
 758              	ssd1306_TestAll:
 759              	.LFB74:
 151:Core/Src/oled/ssd1306_tests.c **** 
 152:Core/Src/oled/ssd1306_tests.c **** void ssd1306_TestAll() {
 760              		.loc 1 152 24 is_stmt 1 view -0
 761              		.cfi_startproc
 762              		@ args = 0, pretend = 0, frame = 0
 763              		@ frame_needed = 0, uses_anonymous_args = 0
 764 0000 08B5     		push	{r3, lr}
 765              	.LCFI18:
 766              		.cfi_def_cfa_offset 8
 767              		.cfi_offset 3, -8
 768              		.cfi_offset 14, -4
 153:Core/Src/oled/ssd1306_tests.c ****     ssd1306_Init();
 769              		.loc 1 153 5 view .LVU154
 770 0002 FFF7FEFF 		bl	ssd1306_Init
 771              	.LVL79:
 154:Core/Src/oled/ssd1306_tests.c ****     ssd1306_TestFPS();
 772              		.loc 1 154 5 view .LVU155
 773 0006 FFF7FEFF 		bl	ssd1306_TestFPS
 774              	.LVL80:
 155:Core/Src/oled/ssd1306_tests.c ****     HAL_Delay(3000);
 775              		.loc 1 155 5 view .LVU156
 776 000a 40F6B830 		movw	r0, #3000
 777 000e FFF7FEFF 		bl	HAL_Delay
 778              	.LVL81:
 156:Core/Src/oled/ssd1306_tests.c ****     ssd1306_TestBorder();
 779              		.loc 1 156 5 view .LVU157
 780 0012 FFF7FEFF 		bl	ssd1306_TestBorder
 781              	.LVL82:
 157:Core/Src/oled/ssd1306_tests.c ****     ssd1306_TestFonts();
 782              		.loc 1 157 5 view .LVU158
 783 0016 FFF7FEFF 		bl	ssd1306_TestFonts
 784              	.LVL83:
 158:Core/Src/oled/ssd1306_tests.c ****     HAL_Delay(3000);
 785              		.loc 1 158 5 view .LVU159
 786 001a 40F6B830 		movw	r0, #3000
 787 001e FFF7FEFF 		bl	HAL_Delay
 788              	.LVL84:
ARM GAS  /tmp/ccjX1LNs.s 			page 18


 159:Core/Src/oled/ssd1306_tests.c ****     ssd1306_Fill(Black);
 789              		.loc 1 159 5 view .LVU160
 790 0022 0020     		movs	r0, #0
 791 0024 FFF7FEFF 		bl	ssd1306_Fill
 792              	.LVL85:
 160:Core/Src/oled/ssd1306_tests.c ****     ssd1306_TestRectangle();
 793              		.loc 1 160 5 view .LVU161
 794 0028 FFF7FEFF 		bl	ssd1306_TestRectangle
 795              	.LVL86:
 161:Core/Src/oled/ssd1306_tests.c ****     ssd1306_TestLine();
 796              		.loc 1 161 5 view .LVU162
 797 002c FFF7FEFF 		bl	ssd1306_TestLine
 798              	.LVL87:
 162:Core/Src/oled/ssd1306_tests.c ****     HAL_Delay(3000);
 799              		.loc 1 162 5 view .LVU163
 800 0030 40F6B830 		movw	r0, #3000
 801 0034 FFF7FEFF 		bl	HAL_Delay
 802              	.LVL88:
 163:Core/Src/oled/ssd1306_tests.c ****     ssd1306_Fill(Black);
 803              		.loc 1 163 5 view .LVU164
 804 0038 0020     		movs	r0, #0
 805 003a FFF7FEFF 		bl	ssd1306_Fill
 806              	.LVL89:
 164:Core/Src/oled/ssd1306_tests.c ****     ssd1306_TestPolyline();
 807              		.loc 1 164 5 view .LVU165
 808 003e FFF7FEFF 		bl	ssd1306_TestPolyline
 809              	.LVL90:
 165:Core/Src/oled/ssd1306_tests.c ****     HAL_Delay(3000);
 810              		.loc 1 165 5 view .LVU166
 811 0042 40F6B830 		movw	r0, #3000
 812 0046 FFF7FEFF 		bl	HAL_Delay
 813              	.LVL91:
 166:Core/Src/oled/ssd1306_tests.c ****     ssd1306_Fill(Black);
 814              		.loc 1 166 5 view .LVU167
 815 004a 0020     		movs	r0, #0
 816 004c FFF7FEFF 		bl	ssd1306_Fill
 817              	.LVL92:
 167:Core/Src/oled/ssd1306_tests.c ****     ssd1306_TestArc();
 818              		.loc 1 167 5 view .LVU168
 819 0050 FFF7FEFF 		bl	ssd1306_TestArc
 820              	.LVL93:
 168:Core/Src/oled/ssd1306_tests.c ****     HAL_Delay(3000);
 821              		.loc 1 168 5 view .LVU169
 822 0054 40F6B830 		movw	r0, #3000
 823 0058 FFF7FEFF 		bl	HAL_Delay
 824              	.LVL94:
 169:Core/Src/oled/ssd1306_tests.c ****     ssd1306_Fill(Black);
 825              		.loc 1 169 5 view .LVU170
 826 005c 0020     		movs	r0, #0
 827 005e FFF7FEFF 		bl	ssd1306_Fill
 828              	.LVL95:
 170:Core/Src/oled/ssd1306_tests.c ****     ssd1306_TestCircle();
 829              		.loc 1 170 5 view .LVU171
 830 0062 FFF7FEFF 		bl	ssd1306_TestCircle
 831              	.LVL96:
 171:Core/Src/oled/ssd1306_tests.c ****     HAL_Delay(3000);
 832              		.loc 1 171 5 view .LVU172
ARM GAS  /tmp/ccjX1LNs.s 			page 19


 833 0066 40F6B830 		movw	r0, #3000
 834 006a FFF7FEFF 		bl	HAL_Delay
 835              	.LVL97:
 172:Core/Src/oled/ssd1306_tests.c **** }
 836              		.loc 1 172 1 is_stmt 0 view .LVU173
 837 006e 08BD     		pop	{r3, pc}
 838              		.cfi_endproc
 839              	.LFE74:
 841              		.section	.rodata
 842              		.align	2
 843              		.set	.LANCHOR0,. + 0
 844              	.LC0:
 845 0000 23       		.byte	35
 846 0001 28       		.byte	40
 847 0002 28       		.byte	40
 848 0003 14       		.byte	20
 849 0004 2D       		.byte	45
 850 0005 1C       		.byte	28
 851 0006 32       		.byte	50
 852 0007 0A       		.byte	10
 853 0008 2D       		.byte	45
 854 0009 10       		.byte	16
 855 000a 32       		.byte	50
 856 000b 0A       		.byte	10
 857 000c 35       		.byte	53
 858 000d 10       		.byte	16
 859              		.text
 860              	.Letext0:
 861              		.file 2 "/usr/lib/gcc/arm-none-eabi/9.2.1/include/stddef.h"
 862              		.file 3 "/usr/include/newlib/machine/_default_types.h"
 863              		.file 4 "/usr/include/newlib/sys/_types.h"
 864              		.file 5 "/usr/include/newlib/sys/reent.h"
 865              		.file 6 "/usr/include/newlib/sys/lock.h"
 866              		.file 7 "/usr/include/newlib/sys/_stdint.h"
 867              		.file 8 "Drivers/CMSIS/Include/core_cm3.h"
 868              		.file 9 "Drivers/CMSIS/Device/ST/STM32F1xx/Include/system_stm32f1xx.h"
 869              		.file 10 "Drivers/CMSIS/Device/ST/STM32F1xx/Include/stm32f103xe.h"
 870              		.file 11 "Drivers/STM32F1xx_HAL_Driver/Inc/stm32f1xx_hal_def.h"
 871              		.file 12 "Drivers/STM32F1xx_HAL_Driver/Inc/stm32f1xx_hal_dma.h"
 872              		.file 13 "Drivers/STM32F1xx_HAL_Driver/Inc/stm32f1xx_hal_i2c.h"
 873              		.file 14 "Drivers/STM32F1xx_HAL_Driver/Inc/stm32f1xx_hal.h"
 874              		.file 15 "Core/Src/oled/../../Inc/oled/ssd1306_fonts.h"
 875              		.file 16 "Core/Src/oled/../../Inc/oled/ssd1306.h"
 876              		.file 17 "/usr/include/newlib/string.h"
 877              		.file 18 "/usr/include/newlib/stdio.h"
ARM GAS  /tmp/ccjX1LNs.s 			page 20

