ARM GAS  /tmp/ccF58yb4.s 			page 1


   1              		.cpu cortex-m3
   2              		.eabi_attribute 20, 1
   3              		.eabi_attribute 21, 1
   4              		.eabi_attribute 23, 3
   5              		.eabi_attribute 24, 1
   6              		.eabi_attribute 25, 1
   7              		.eabi_attribute 26, 1
   8              		.eabi_attribute 30, 1
   9              		.eabi_attribute 34, 1
  10              		.eabi_attribute 18, 4
  11              		.file	"usbd_desc.c"
  12              		.text
  13              	.Ltext0:
  14              		.cfi_sections	.debug_frame
  15              		.section	.text.USBD_FS_DeviceDescriptor,"ax",%progbits
  16              		.align	1
  17              		.global	USBD_FS_DeviceDescriptor
  18              		.arch armv7-m
  19              		.syntax unified
  20              		.thumb
  21              		.thumb_func
  22              		.fpu softvfp
  24              	USBD_FS_DeviceDescriptor:
  25              	.LVL0:
  26              	.LFB66:
  27              		.file 1 "USB_DEVICE/App/usbd_desc.c"
   1:USB_DEVICE/App/usbd_desc.c **** /* USER CODE BEGIN Header */
   2:USB_DEVICE/App/usbd_desc.c **** /**
   3:USB_DEVICE/App/usbd_desc.c ****   ******************************************************************************
   4:USB_DEVICE/App/usbd_desc.c ****   * @file           : App/usbd_desc.c
   5:USB_DEVICE/App/usbd_desc.c ****   * @version        : v2.0_Cube
   6:USB_DEVICE/App/usbd_desc.c ****   * @brief          : This file implements the USB device descriptors.
   7:USB_DEVICE/App/usbd_desc.c ****   ******************************************************************************
   8:USB_DEVICE/App/usbd_desc.c ****   * @attention
   9:USB_DEVICE/App/usbd_desc.c ****   *
  10:USB_DEVICE/App/usbd_desc.c ****   * <h2><center>&copy; Copyright (c) 2021 STMicroelectronics.
  11:USB_DEVICE/App/usbd_desc.c ****   * All rights reserved.</center></h2>
  12:USB_DEVICE/App/usbd_desc.c ****   *
  13:USB_DEVICE/App/usbd_desc.c ****   * This software component is licensed by ST under Ultimate Liberty license
  14:USB_DEVICE/App/usbd_desc.c ****   * SLA0044, the "License"; You may not use this file except in compliance with
  15:USB_DEVICE/App/usbd_desc.c ****   * the License. You may obtain a copy of the License at:
  16:USB_DEVICE/App/usbd_desc.c ****   *                             www.st.com/SLA0044
  17:USB_DEVICE/App/usbd_desc.c ****   *
  18:USB_DEVICE/App/usbd_desc.c ****   ******************************************************************************
  19:USB_DEVICE/App/usbd_desc.c ****   */
  20:USB_DEVICE/App/usbd_desc.c **** /* USER CODE END Header */
  21:USB_DEVICE/App/usbd_desc.c **** 
  22:USB_DEVICE/App/usbd_desc.c **** /* Includes ------------------------------------------------------------------*/
  23:USB_DEVICE/App/usbd_desc.c **** #include "usbd_core.h"
  24:USB_DEVICE/App/usbd_desc.c **** #include "usbd_desc.h"
  25:USB_DEVICE/App/usbd_desc.c **** #include "usbd_conf.h"
  26:USB_DEVICE/App/usbd_desc.c **** 
  27:USB_DEVICE/App/usbd_desc.c **** /* USER CODE BEGIN INCLUDE */
  28:USB_DEVICE/App/usbd_desc.c **** 
  29:USB_DEVICE/App/usbd_desc.c **** /* USER CODE END INCLUDE */
  30:USB_DEVICE/App/usbd_desc.c **** 
  31:USB_DEVICE/App/usbd_desc.c **** /* Private typedef -----------------------------------------------------------*/
ARM GAS  /tmp/ccF58yb4.s 			page 2


  32:USB_DEVICE/App/usbd_desc.c **** /* Private define ------------------------------------------------------------*/
  33:USB_DEVICE/App/usbd_desc.c **** /* Private macro -------------------------------------------------------------*/
  34:USB_DEVICE/App/usbd_desc.c **** 
  35:USB_DEVICE/App/usbd_desc.c **** /* USER CODE BEGIN PV */
  36:USB_DEVICE/App/usbd_desc.c **** /* Private variables ---------------------------------------------------------*/
  37:USB_DEVICE/App/usbd_desc.c **** 
  38:USB_DEVICE/App/usbd_desc.c **** /* USER CODE END PV */
  39:USB_DEVICE/App/usbd_desc.c **** 
  40:USB_DEVICE/App/usbd_desc.c **** /** @addtogroup STM32_USB_OTG_DEVICE_LIBRARY
  41:USB_DEVICE/App/usbd_desc.c ****   * @{
  42:USB_DEVICE/App/usbd_desc.c ****   */
  43:USB_DEVICE/App/usbd_desc.c **** 
  44:USB_DEVICE/App/usbd_desc.c **** /** @addtogroup USBD_DESC
  45:USB_DEVICE/App/usbd_desc.c ****   * @{
  46:USB_DEVICE/App/usbd_desc.c ****   */
  47:USB_DEVICE/App/usbd_desc.c **** 
  48:USB_DEVICE/App/usbd_desc.c **** /** @defgroup USBD_DESC_Private_TypesDefinitions USBD_DESC_Private_TypesDefinitions
  49:USB_DEVICE/App/usbd_desc.c ****   * @brief Private types.
  50:USB_DEVICE/App/usbd_desc.c ****   * @{
  51:USB_DEVICE/App/usbd_desc.c ****   */
  52:USB_DEVICE/App/usbd_desc.c **** 
  53:USB_DEVICE/App/usbd_desc.c **** /* USER CODE BEGIN PRIVATE_TYPES */
  54:USB_DEVICE/App/usbd_desc.c **** 
  55:USB_DEVICE/App/usbd_desc.c **** /* USER CODE END PRIVATE_TYPES */
  56:USB_DEVICE/App/usbd_desc.c **** 
  57:USB_DEVICE/App/usbd_desc.c **** /**
  58:USB_DEVICE/App/usbd_desc.c ****   * @}
  59:USB_DEVICE/App/usbd_desc.c ****   */
  60:USB_DEVICE/App/usbd_desc.c **** 
  61:USB_DEVICE/App/usbd_desc.c **** /** @defgroup USBD_DESC_Private_Defines USBD_DESC_Private_Defines
  62:USB_DEVICE/App/usbd_desc.c ****   * @brief Private defines.
  63:USB_DEVICE/App/usbd_desc.c ****   * @{
  64:USB_DEVICE/App/usbd_desc.c ****   */
  65:USB_DEVICE/App/usbd_desc.c **** 
  66:USB_DEVICE/App/usbd_desc.c **** #define USBD_VID     1155
  67:USB_DEVICE/App/usbd_desc.c **** #define USBD_LANGID_STRING     1033
  68:USB_DEVICE/App/usbd_desc.c **** #define USBD_MANUFACTURER_STRING     "STMicroelectronics"
  69:USB_DEVICE/App/usbd_desc.c **** #define USBD_PID_FS     22315
  70:USB_DEVICE/App/usbd_desc.c **** #define USBD_PRODUCT_STRING_FS     "STM32keyboard"
  71:USB_DEVICE/App/usbd_desc.c **** #define USBD_CONFIGURATION_STRING_FS     "HID Config"
  72:USB_DEVICE/App/usbd_desc.c **** #define USBD_INTERFACE_STRING_FS     "HID Interface"
  73:USB_DEVICE/App/usbd_desc.c **** 
  74:USB_DEVICE/App/usbd_desc.c **** /* USER CODE BEGIN PRIVATE_DEFINES */
  75:USB_DEVICE/App/usbd_desc.c **** 
  76:USB_DEVICE/App/usbd_desc.c **** /* USER CODE END PRIVATE_DEFINES */
  77:USB_DEVICE/App/usbd_desc.c **** 
  78:USB_DEVICE/App/usbd_desc.c **** /**
  79:USB_DEVICE/App/usbd_desc.c ****   * @}
  80:USB_DEVICE/App/usbd_desc.c ****   */
  81:USB_DEVICE/App/usbd_desc.c **** 
  82:USB_DEVICE/App/usbd_desc.c **** /* USER CODE BEGIN 0 */
  83:USB_DEVICE/App/usbd_desc.c **** 
  84:USB_DEVICE/App/usbd_desc.c **** /* USER CODE END 0 */
  85:USB_DEVICE/App/usbd_desc.c **** 
  86:USB_DEVICE/App/usbd_desc.c **** /** @defgroup USBD_DESC_Private_Macros USBD_DESC_Private_Macros
  87:USB_DEVICE/App/usbd_desc.c ****   * @brief Private macros.
  88:USB_DEVICE/App/usbd_desc.c ****   * @{
ARM GAS  /tmp/ccF58yb4.s 			page 3


  89:USB_DEVICE/App/usbd_desc.c ****   */
  90:USB_DEVICE/App/usbd_desc.c **** 
  91:USB_DEVICE/App/usbd_desc.c **** /* USER CODE BEGIN PRIVATE_MACRO */
  92:USB_DEVICE/App/usbd_desc.c **** 
  93:USB_DEVICE/App/usbd_desc.c **** /* USER CODE END PRIVATE_MACRO */
  94:USB_DEVICE/App/usbd_desc.c **** 
  95:USB_DEVICE/App/usbd_desc.c **** /**
  96:USB_DEVICE/App/usbd_desc.c ****   * @}
  97:USB_DEVICE/App/usbd_desc.c ****   */
  98:USB_DEVICE/App/usbd_desc.c **** 
  99:USB_DEVICE/App/usbd_desc.c **** /** @defgroup USBD_DESC_Private_FunctionPrototypes USBD_DESC_Private_FunctionPrototypes
 100:USB_DEVICE/App/usbd_desc.c ****   * @brief Private functions declaration.
 101:USB_DEVICE/App/usbd_desc.c ****   * @{
 102:USB_DEVICE/App/usbd_desc.c ****   */
 103:USB_DEVICE/App/usbd_desc.c **** 
 104:USB_DEVICE/App/usbd_desc.c **** static void Get_SerialNum(void);
 105:USB_DEVICE/App/usbd_desc.c **** static void IntToUnicode(uint32_t value, uint8_t * pbuf, uint8_t len);
 106:USB_DEVICE/App/usbd_desc.c **** 
 107:USB_DEVICE/App/usbd_desc.c **** /**
 108:USB_DEVICE/App/usbd_desc.c ****   * @}
 109:USB_DEVICE/App/usbd_desc.c ****   */
 110:USB_DEVICE/App/usbd_desc.c **** 
 111:USB_DEVICE/App/usbd_desc.c **** /** @defgroup USBD_DESC_Private_FunctionPrototypes USBD_DESC_Private_FunctionPrototypes
 112:USB_DEVICE/App/usbd_desc.c ****   * @brief Private functions declaration for FS.
 113:USB_DEVICE/App/usbd_desc.c ****   * @{
 114:USB_DEVICE/App/usbd_desc.c ****   */
 115:USB_DEVICE/App/usbd_desc.c **** 
 116:USB_DEVICE/App/usbd_desc.c **** uint8_t * USBD_FS_DeviceDescriptor(USBD_SpeedTypeDef speed, uint16_t *length);
 117:USB_DEVICE/App/usbd_desc.c **** uint8_t * USBD_FS_LangIDStrDescriptor(USBD_SpeedTypeDef speed, uint16_t *length);
 118:USB_DEVICE/App/usbd_desc.c **** uint8_t * USBD_FS_ManufacturerStrDescriptor(USBD_SpeedTypeDef speed, uint16_t *length);
 119:USB_DEVICE/App/usbd_desc.c **** uint8_t * USBD_FS_ProductStrDescriptor(USBD_SpeedTypeDef speed, uint16_t *length);
 120:USB_DEVICE/App/usbd_desc.c **** uint8_t * USBD_FS_SerialStrDescriptor(USBD_SpeedTypeDef speed, uint16_t *length);
 121:USB_DEVICE/App/usbd_desc.c **** uint8_t * USBD_FS_ConfigStrDescriptor(USBD_SpeedTypeDef speed, uint16_t *length);
 122:USB_DEVICE/App/usbd_desc.c **** uint8_t * USBD_FS_InterfaceStrDescriptor(USBD_SpeedTypeDef speed, uint16_t *length);
 123:USB_DEVICE/App/usbd_desc.c **** 
 124:USB_DEVICE/App/usbd_desc.c **** #ifdef USBD_SUPPORT_USER_STRING_DESC
 125:USB_DEVICE/App/usbd_desc.c **** uint8_t * USBD_FS_USRStringDesc(USBD_SpeedTypeDef speed, uint8_t idx, uint16_t *length);
 126:USB_DEVICE/App/usbd_desc.c **** #endif /* USBD_SUPPORT_USER_STRING_DESC */
 127:USB_DEVICE/App/usbd_desc.c **** 
 128:USB_DEVICE/App/usbd_desc.c **** /**
 129:USB_DEVICE/App/usbd_desc.c ****   * @}
 130:USB_DEVICE/App/usbd_desc.c ****   */
 131:USB_DEVICE/App/usbd_desc.c **** 
 132:USB_DEVICE/App/usbd_desc.c **** /** @defgroup USBD_DESC_Private_Variables USBD_DESC_Private_Variables
 133:USB_DEVICE/App/usbd_desc.c ****   * @brief Private variables.
 134:USB_DEVICE/App/usbd_desc.c ****   * @{
 135:USB_DEVICE/App/usbd_desc.c ****   */
 136:USB_DEVICE/App/usbd_desc.c **** 
 137:USB_DEVICE/App/usbd_desc.c **** USBD_DescriptorsTypeDef FS_Desc =
 138:USB_DEVICE/App/usbd_desc.c **** {
 139:USB_DEVICE/App/usbd_desc.c ****   USBD_FS_DeviceDescriptor
 140:USB_DEVICE/App/usbd_desc.c **** , USBD_FS_LangIDStrDescriptor
 141:USB_DEVICE/App/usbd_desc.c **** , USBD_FS_ManufacturerStrDescriptor
 142:USB_DEVICE/App/usbd_desc.c **** , USBD_FS_ProductStrDescriptor
 143:USB_DEVICE/App/usbd_desc.c **** , USBD_FS_SerialStrDescriptor
 144:USB_DEVICE/App/usbd_desc.c **** , USBD_FS_ConfigStrDescriptor
 145:USB_DEVICE/App/usbd_desc.c **** , USBD_FS_InterfaceStrDescriptor
ARM GAS  /tmp/ccF58yb4.s 			page 4


 146:USB_DEVICE/App/usbd_desc.c **** };
 147:USB_DEVICE/App/usbd_desc.c **** 
 148:USB_DEVICE/App/usbd_desc.c **** #if defined ( __ICCARM__ ) /* IAR Compiler */
 149:USB_DEVICE/App/usbd_desc.c ****   #pragma data_alignment=4
 150:USB_DEVICE/App/usbd_desc.c **** #endif /* defined ( __ICCARM__ ) */
 151:USB_DEVICE/App/usbd_desc.c **** /** USB standard device descriptor. */
 152:USB_DEVICE/App/usbd_desc.c **** __ALIGN_BEGIN uint8_t USBD_FS_DeviceDesc[USB_LEN_DEV_DESC] __ALIGN_END =
 153:USB_DEVICE/App/usbd_desc.c **** {
 154:USB_DEVICE/App/usbd_desc.c ****   0x12,                       /*bLength */
 155:USB_DEVICE/App/usbd_desc.c ****   USB_DESC_TYPE_DEVICE,       /*bDescriptorType*/
 156:USB_DEVICE/App/usbd_desc.c ****   0x00,                       /*bcdUSB */
 157:USB_DEVICE/App/usbd_desc.c ****   0x02,
 158:USB_DEVICE/App/usbd_desc.c ****   0x00,                       /*bDeviceClass*/
 159:USB_DEVICE/App/usbd_desc.c ****   0x00,                       /*bDeviceSubClass*/
 160:USB_DEVICE/App/usbd_desc.c ****   0x00,                       /*bDeviceProtocol*/
 161:USB_DEVICE/App/usbd_desc.c ****   USB_MAX_EP0_SIZE,           /*bMaxPacketSize*/
 162:USB_DEVICE/App/usbd_desc.c ****   LOBYTE(USBD_VID),           /*idVendor*/
 163:USB_DEVICE/App/usbd_desc.c ****   HIBYTE(USBD_VID),           /*idVendor*/
 164:USB_DEVICE/App/usbd_desc.c ****   LOBYTE(USBD_PID_FS),        /*idProduct*/
 165:USB_DEVICE/App/usbd_desc.c ****   HIBYTE(USBD_PID_FS),        /*idProduct*/
 166:USB_DEVICE/App/usbd_desc.c ****   0x00,                       /*bcdDevice rel. 2.00*/
 167:USB_DEVICE/App/usbd_desc.c ****   0x02,
 168:USB_DEVICE/App/usbd_desc.c ****   USBD_IDX_MFC_STR,           /*Index of manufacturer  string*/
 169:USB_DEVICE/App/usbd_desc.c ****   USBD_IDX_PRODUCT_STR,       /*Index of product string*/
 170:USB_DEVICE/App/usbd_desc.c ****   USBD_IDX_SERIAL_STR,        /*Index of serial number string*/
 171:USB_DEVICE/App/usbd_desc.c ****   USBD_MAX_NUM_CONFIGURATION  /*bNumConfigurations*/
 172:USB_DEVICE/App/usbd_desc.c **** };
 173:USB_DEVICE/App/usbd_desc.c **** 
 174:USB_DEVICE/App/usbd_desc.c **** /* USB_DeviceDescriptor */
 175:USB_DEVICE/App/usbd_desc.c **** 
 176:USB_DEVICE/App/usbd_desc.c **** /**
 177:USB_DEVICE/App/usbd_desc.c ****   * @}
 178:USB_DEVICE/App/usbd_desc.c ****   */
 179:USB_DEVICE/App/usbd_desc.c **** 
 180:USB_DEVICE/App/usbd_desc.c **** /** @defgroup USBD_DESC_Private_Variables USBD_DESC_Private_Variables
 181:USB_DEVICE/App/usbd_desc.c ****   * @brief Private variables.
 182:USB_DEVICE/App/usbd_desc.c ****   * @{
 183:USB_DEVICE/App/usbd_desc.c ****   */
 184:USB_DEVICE/App/usbd_desc.c **** 
 185:USB_DEVICE/App/usbd_desc.c **** #if defined ( __ICCARM__ ) /* IAR Compiler */
 186:USB_DEVICE/App/usbd_desc.c ****   #pragma data_alignment=4
 187:USB_DEVICE/App/usbd_desc.c **** #endif /* defined ( __ICCARM__ ) */
 188:USB_DEVICE/App/usbd_desc.c **** 
 189:USB_DEVICE/App/usbd_desc.c **** /** USB lang indentifier descriptor. */
 190:USB_DEVICE/App/usbd_desc.c **** __ALIGN_BEGIN uint8_t USBD_LangIDDesc[USB_LEN_LANGID_STR_DESC] __ALIGN_END =
 191:USB_DEVICE/App/usbd_desc.c **** {
 192:USB_DEVICE/App/usbd_desc.c ****      USB_LEN_LANGID_STR_DESC,
 193:USB_DEVICE/App/usbd_desc.c ****      USB_DESC_TYPE_STRING,
 194:USB_DEVICE/App/usbd_desc.c ****      LOBYTE(USBD_LANGID_STRING),
 195:USB_DEVICE/App/usbd_desc.c ****      HIBYTE(USBD_LANGID_STRING)
 196:USB_DEVICE/App/usbd_desc.c **** };
 197:USB_DEVICE/App/usbd_desc.c **** 
 198:USB_DEVICE/App/usbd_desc.c **** #if defined ( __ICCARM__ ) /* IAR Compiler */
 199:USB_DEVICE/App/usbd_desc.c ****   #pragma data_alignment=4
 200:USB_DEVICE/App/usbd_desc.c **** #endif /* defined ( __ICCARM__ ) */
 201:USB_DEVICE/App/usbd_desc.c **** /* Internal string descriptor. */
 202:USB_DEVICE/App/usbd_desc.c **** __ALIGN_BEGIN uint8_t USBD_StrDesc[USBD_MAX_STR_DESC_SIZ] __ALIGN_END;
ARM GAS  /tmp/ccF58yb4.s 			page 5


 203:USB_DEVICE/App/usbd_desc.c **** 
 204:USB_DEVICE/App/usbd_desc.c **** #if defined ( __ICCARM__ ) /*!< IAR Compiler */
 205:USB_DEVICE/App/usbd_desc.c ****   #pragma data_alignment=4
 206:USB_DEVICE/App/usbd_desc.c **** #endif
 207:USB_DEVICE/App/usbd_desc.c **** __ALIGN_BEGIN uint8_t USBD_StringSerial[USB_SIZ_STRING_SERIAL] __ALIGN_END = {
 208:USB_DEVICE/App/usbd_desc.c ****   USB_SIZ_STRING_SERIAL,
 209:USB_DEVICE/App/usbd_desc.c ****   USB_DESC_TYPE_STRING,
 210:USB_DEVICE/App/usbd_desc.c **** };
 211:USB_DEVICE/App/usbd_desc.c **** 
 212:USB_DEVICE/App/usbd_desc.c **** /**
 213:USB_DEVICE/App/usbd_desc.c ****   * @}
 214:USB_DEVICE/App/usbd_desc.c ****   */
 215:USB_DEVICE/App/usbd_desc.c **** 
 216:USB_DEVICE/App/usbd_desc.c **** /** @defgroup USBD_DESC_Private_Functions USBD_DESC_Private_Functions
 217:USB_DEVICE/App/usbd_desc.c ****   * @brief Private functions.
 218:USB_DEVICE/App/usbd_desc.c ****   * @{
 219:USB_DEVICE/App/usbd_desc.c ****   */
 220:USB_DEVICE/App/usbd_desc.c **** 
 221:USB_DEVICE/App/usbd_desc.c **** /**
 222:USB_DEVICE/App/usbd_desc.c ****   * @brief  Return the device descriptor
 223:USB_DEVICE/App/usbd_desc.c ****   * @param  speed : Current device speed
 224:USB_DEVICE/App/usbd_desc.c ****   * @param  length : Pointer to data length variable
 225:USB_DEVICE/App/usbd_desc.c ****   * @retval Pointer to descriptor buffer
 226:USB_DEVICE/App/usbd_desc.c ****   */
 227:USB_DEVICE/App/usbd_desc.c **** uint8_t * USBD_FS_DeviceDescriptor(USBD_SpeedTypeDef speed, uint16_t *length)
 228:USB_DEVICE/App/usbd_desc.c **** {
  28              		.loc 1 228 1 view -0
  29              		.cfi_startproc
  30              		@ args = 0, pretend = 0, frame = 0
  31              		@ frame_needed = 0, uses_anonymous_args = 0
  32              		@ link register save eliminated.
 229:USB_DEVICE/App/usbd_desc.c ****   *length = sizeof(USBD_FS_DeviceDesc);
  33              		.loc 1 229 3 view .LVU1
  34              		.loc 1 229 11 is_stmt 0 view .LVU2
  35 0000 1223     		movs	r3, #18
  36 0002 0B80     		strh	r3, [r1]	@ movhi
 230:USB_DEVICE/App/usbd_desc.c ****   return USBD_FS_DeviceDesc;
  37              		.loc 1 230 3 is_stmt 1 view .LVU3
 231:USB_DEVICE/App/usbd_desc.c **** }
  38              		.loc 1 231 1 is_stmt 0 view .LVU4
  39 0004 0048     		ldr	r0, .L2
  40              	.LVL1:
  41              		.loc 1 231 1 view .LVU5
  42 0006 7047     		bx	lr
  43              	.L3:
  44              		.align	2
  45              	.L2:
  46 0008 00000000 		.word	.LANCHOR0
  47              		.cfi_endproc
  48              	.LFE66:
  50              		.section	.text.USBD_FS_LangIDStrDescriptor,"ax",%progbits
  51              		.align	1
  52              		.global	USBD_FS_LangIDStrDescriptor
  53              		.syntax unified
  54              		.thumb
  55              		.thumb_func
  56              		.fpu softvfp
ARM GAS  /tmp/ccF58yb4.s 			page 6


  58              	USBD_FS_LangIDStrDescriptor:
  59              	.LVL2:
  60              	.LFB67:
 232:USB_DEVICE/App/usbd_desc.c **** 
 233:USB_DEVICE/App/usbd_desc.c **** /**
 234:USB_DEVICE/App/usbd_desc.c ****   * @brief  Return the LangID string descriptor
 235:USB_DEVICE/App/usbd_desc.c ****   * @param  speed : Current device speed
 236:USB_DEVICE/App/usbd_desc.c ****   * @param  length : Pointer to data length variable
 237:USB_DEVICE/App/usbd_desc.c ****   * @retval Pointer to descriptor buffer
 238:USB_DEVICE/App/usbd_desc.c ****   */
 239:USB_DEVICE/App/usbd_desc.c **** uint8_t * USBD_FS_LangIDStrDescriptor(USBD_SpeedTypeDef speed, uint16_t *length)
 240:USB_DEVICE/App/usbd_desc.c **** {
  61              		.loc 1 240 1 is_stmt 1 view -0
  62              		.cfi_startproc
  63              		@ args = 0, pretend = 0, frame = 0
  64              		@ frame_needed = 0, uses_anonymous_args = 0
  65              		@ link register save eliminated.
 241:USB_DEVICE/App/usbd_desc.c ****   *length = sizeof(USBD_LangIDDesc);
  66              		.loc 1 241 3 view .LVU7
  67              		.loc 1 241 11 is_stmt 0 view .LVU8
  68 0000 0423     		movs	r3, #4
  69 0002 0B80     		strh	r3, [r1]	@ movhi
 242:USB_DEVICE/App/usbd_desc.c ****   return USBD_LangIDDesc;
  70              		.loc 1 242 3 is_stmt 1 view .LVU9
 243:USB_DEVICE/App/usbd_desc.c **** }
  71              		.loc 1 243 1 is_stmt 0 view .LVU10
  72 0004 0048     		ldr	r0, .L5
  73              	.LVL3:
  74              		.loc 1 243 1 view .LVU11
  75 0006 7047     		bx	lr
  76              	.L6:
  77              		.align	2
  78              	.L5:
  79 0008 00000000 		.word	.LANCHOR1
  80              		.cfi_endproc
  81              	.LFE67:
  83              		.section	.text.IntToUnicode,"ax",%progbits
  84              		.align	1
  85              		.syntax unified
  86              		.thumb
  87              		.thumb_func
  88              		.fpu softvfp
  90              	IntToUnicode:
  91              	.LVL4:
  92              	.LFB74:
 244:USB_DEVICE/App/usbd_desc.c **** 
 245:USB_DEVICE/App/usbd_desc.c **** /**
 246:USB_DEVICE/App/usbd_desc.c ****   * @brief  Return the product string descriptor
 247:USB_DEVICE/App/usbd_desc.c ****   * @param  speed : Current device speed
 248:USB_DEVICE/App/usbd_desc.c ****   * @param  length : Pointer to data length variable
 249:USB_DEVICE/App/usbd_desc.c ****   * @retval Pointer to descriptor buffer
 250:USB_DEVICE/App/usbd_desc.c ****   */
 251:USB_DEVICE/App/usbd_desc.c **** uint8_t * USBD_FS_ProductStrDescriptor(USBD_SpeedTypeDef speed, uint16_t *length)
 252:USB_DEVICE/App/usbd_desc.c **** {
 253:USB_DEVICE/App/usbd_desc.c ****   if(speed == 0)
 254:USB_DEVICE/App/usbd_desc.c ****   {
 255:USB_DEVICE/App/usbd_desc.c ****     USBD_GetString((uint8_t *)USBD_PRODUCT_STRING_FS, USBD_StrDesc, length);
ARM GAS  /tmp/ccF58yb4.s 			page 7


 256:USB_DEVICE/App/usbd_desc.c ****   }
 257:USB_DEVICE/App/usbd_desc.c ****   else
 258:USB_DEVICE/App/usbd_desc.c ****   {
 259:USB_DEVICE/App/usbd_desc.c ****     USBD_GetString((uint8_t *)USBD_PRODUCT_STRING_FS, USBD_StrDesc, length);
 260:USB_DEVICE/App/usbd_desc.c ****   }
 261:USB_DEVICE/App/usbd_desc.c ****   return USBD_StrDesc;
 262:USB_DEVICE/App/usbd_desc.c **** }
 263:USB_DEVICE/App/usbd_desc.c **** 
 264:USB_DEVICE/App/usbd_desc.c **** /**
 265:USB_DEVICE/App/usbd_desc.c ****   * @brief  Return the manufacturer string descriptor
 266:USB_DEVICE/App/usbd_desc.c ****   * @param  speed : Current device speed
 267:USB_DEVICE/App/usbd_desc.c ****   * @param  length : Pointer to data length variable
 268:USB_DEVICE/App/usbd_desc.c ****   * @retval Pointer to descriptor buffer
 269:USB_DEVICE/App/usbd_desc.c ****   */
 270:USB_DEVICE/App/usbd_desc.c **** uint8_t * USBD_FS_ManufacturerStrDescriptor(USBD_SpeedTypeDef speed, uint16_t *length)
 271:USB_DEVICE/App/usbd_desc.c **** {
 272:USB_DEVICE/App/usbd_desc.c ****   USBD_GetString((uint8_t *)USBD_MANUFACTURER_STRING, USBD_StrDesc, length);
 273:USB_DEVICE/App/usbd_desc.c ****   return USBD_StrDesc;
 274:USB_DEVICE/App/usbd_desc.c **** }
 275:USB_DEVICE/App/usbd_desc.c **** 
 276:USB_DEVICE/App/usbd_desc.c **** /**
 277:USB_DEVICE/App/usbd_desc.c ****   * @brief  Return the serial number string descriptor
 278:USB_DEVICE/App/usbd_desc.c ****   * @param  speed : Current device speed
 279:USB_DEVICE/App/usbd_desc.c ****   * @param  length : Pointer to data length variable
 280:USB_DEVICE/App/usbd_desc.c ****   * @retval Pointer to descriptor buffer
 281:USB_DEVICE/App/usbd_desc.c ****   */
 282:USB_DEVICE/App/usbd_desc.c **** uint8_t * USBD_FS_SerialStrDescriptor(USBD_SpeedTypeDef speed, uint16_t *length)
 283:USB_DEVICE/App/usbd_desc.c **** {
 284:USB_DEVICE/App/usbd_desc.c ****   *length = USB_SIZ_STRING_SERIAL;
 285:USB_DEVICE/App/usbd_desc.c **** 
 286:USB_DEVICE/App/usbd_desc.c ****   /* Update the serial number string descriptor with the data from the unique
 287:USB_DEVICE/App/usbd_desc.c ****    * ID */
 288:USB_DEVICE/App/usbd_desc.c ****   Get_SerialNum();
 289:USB_DEVICE/App/usbd_desc.c **** 
 290:USB_DEVICE/App/usbd_desc.c ****   return (uint8_t *) USBD_StringSerial;
 291:USB_DEVICE/App/usbd_desc.c **** }
 292:USB_DEVICE/App/usbd_desc.c **** 
 293:USB_DEVICE/App/usbd_desc.c **** /**
 294:USB_DEVICE/App/usbd_desc.c ****   * @brief  Return the configuration string descriptor
 295:USB_DEVICE/App/usbd_desc.c ****   * @param  speed : Current device speed
 296:USB_DEVICE/App/usbd_desc.c ****   * @param  length : Pointer to data length variable
 297:USB_DEVICE/App/usbd_desc.c ****   * @retval Pointer to descriptor buffer
 298:USB_DEVICE/App/usbd_desc.c ****   */
 299:USB_DEVICE/App/usbd_desc.c **** uint8_t * USBD_FS_ConfigStrDescriptor(USBD_SpeedTypeDef speed, uint16_t *length)
 300:USB_DEVICE/App/usbd_desc.c **** {
 301:USB_DEVICE/App/usbd_desc.c ****   if(speed == USBD_SPEED_HIGH)
 302:USB_DEVICE/App/usbd_desc.c ****   {
 303:USB_DEVICE/App/usbd_desc.c ****     USBD_GetString((uint8_t *)USBD_CONFIGURATION_STRING_FS, USBD_StrDesc, length);
 304:USB_DEVICE/App/usbd_desc.c ****   }
 305:USB_DEVICE/App/usbd_desc.c ****   else
 306:USB_DEVICE/App/usbd_desc.c ****   {
 307:USB_DEVICE/App/usbd_desc.c ****     USBD_GetString((uint8_t *)USBD_CONFIGURATION_STRING_FS, USBD_StrDesc, length);
 308:USB_DEVICE/App/usbd_desc.c ****   }
 309:USB_DEVICE/App/usbd_desc.c ****   return USBD_StrDesc;
 310:USB_DEVICE/App/usbd_desc.c **** }
 311:USB_DEVICE/App/usbd_desc.c **** 
 312:USB_DEVICE/App/usbd_desc.c **** /**
ARM GAS  /tmp/ccF58yb4.s 			page 8


 313:USB_DEVICE/App/usbd_desc.c ****   * @brief  Return the interface string descriptor
 314:USB_DEVICE/App/usbd_desc.c ****   * @param  speed : Current device speed
 315:USB_DEVICE/App/usbd_desc.c ****   * @param  length : Pointer to data length variable
 316:USB_DEVICE/App/usbd_desc.c ****   * @retval Pointer to descriptor buffer
 317:USB_DEVICE/App/usbd_desc.c ****   */
 318:USB_DEVICE/App/usbd_desc.c **** uint8_t * USBD_FS_InterfaceStrDescriptor(USBD_SpeedTypeDef speed, uint16_t *length)
 319:USB_DEVICE/App/usbd_desc.c **** {
 320:USB_DEVICE/App/usbd_desc.c ****   if(speed == 0)
 321:USB_DEVICE/App/usbd_desc.c ****   {
 322:USB_DEVICE/App/usbd_desc.c ****     USBD_GetString((uint8_t *)USBD_INTERFACE_STRING_FS, USBD_StrDesc, length);
 323:USB_DEVICE/App/usbd_desc.c ****   }
 324:USB_DEVICE/App/usbd_desc.c ****   else
 325:USB_DEVICE/App/usbd_desc.c ****   {
 326:USB_DEVICE/App/usbd_desc.c ****     USBD_GetString((uint8_t *)USBD_INTERFACE_STRING_FS, USBD_StrDesc, length);
 327:USB_DEVICE/App/usbd_desc.c ****   }
 328:USB_DEVICE/App/usbd_desc.c ****   return USBD_StrDesc;
 329:USB_DEVICE/App/usbd_desc.c **** }
 330:USB_DEVICE/App/usbd_desc.c **** 
 331:USB_DEVICE/App/usbd_desc.c **** /**
 332:USB_DEVICE/App/usbd_desc.c ****   * @brief  Create the serial number string descriptor
 333:USB_DEVICE/App/usbd_desc.c ****   * @param  None
 334:USB_DEVICE/App/usbd_desc.c ****   * @retval None
 335:USB_DEVICE/App/usbd_desc.c ****   */
 336:USB_DEVICE/App/usbd_desc.c **** static void Get_SerialNum(void)
 337:USB_DEVICE/App/usbd_desc.c **** {
 338:USB_DEVICE/App/usbd_desc.c ****   uint32_t deviceserial0, deviceserial1, deviceserial2;
 339:USB_DEVICE/App/usbd_desc.c **** 
 340:USB_DEVICE/App/usbd_desc.c ****   deviceserial0 = *(uint32_t *) DEVICE_ID1;
 341:USB_DEVICE/App/usbd_desc.c ****   deviceserial1 = *(uint32_t *) DEVICE_ID2;
 342:USB_DEVICE/App/usbd_desc.c ****   deviceserial2 = *(uint32_t *) DEVICE_ID3;
 343:USB_DEVICE/App/usbd_desc.c **** 
 344:USB_DEVICE/App/usbd_desc.c ****   deviceserial0 += deviceserial2;
 345:USB_DEVICE/App/usbd_desc.c **** 
 346:USB_DEVICE/App/usbd_desc.c ****   if (deviceserial0 != 0)
 347:USB_DEVICE/App/usbd_desc.c ****   {
 348:USB_DEVICE/App/usbd_desc.c ****     IntToUnicode(deviceserial0, &USBD_StringSerial[2], 8);
 349:USB_DEVICE/App/usbd_desc.c ****     IntToUnicode(deviceserial1, &USBD_StringSerial[18], 4);
 350:USB_DEVICE/App/usbd_desc.c ****   }
 351:USB_DEVICE/App/usbd_desc.c **** }
 352:USB_DEVICE/App/usbd_desc.c **** 
 353:USB_DEVICE/App/usbd_desc.c **** /**
 354:USB_DEVICE/App/usbd_desc.c ****   * @brief  Convert Hex 32Bits value into char
 355:USB_DEVICE/App/usbd_desc.c ****   * @param  value: value to convert
 356:USB_DEVICE/App/usbd_desc.c ****   * @param  pbuf: pointer to the buffer
 357:USB_DEVICE/App/usbd_desc.c ****   * @param  len: buffer length
 358:USB_DEVICE/App/usbd_desc.c ****   * @retval None
 359:USB_DEVICE/App/usbd_desc.c ****   */
 360:USB_DEVICE/App/usbd_desc.c **** static void IntToUnicode(uint32_t value, uint8_t * pbuf, uint8_t len)
 361:USB_DEVICE/App/usbd_desc.c **** {
  93              		.loc 1 361 1 is_stmt 1 view -0
  94              		.cfi_startproc
  95              		@ args = 0, pretend = 0, frame = 0
  96              		@ frame_needed = 0, uses_anonymous_args = 0
  97              		@ link register save eliminated.
 362:USB_DEVICE/App/usbd_desc.c ****   uint8_t idx = 0;
  98              		.loc 1 362 3 view .LVU13
 363:USB_DEVICE/App/usbd_desc.c **** 
ARM GAS  /tmp/ccF58yb4.s 			page 9


 364:USB_DEVICE/App/usbd_desc.c ****   for (idx = 0; idx < len; idx++)
  99              		.loc 1 364 3 view .LVU14
 100              		.loc 1 364 12 is_stmt 0 view .LVU15
 101 0000 0023     		movs	r3, #0
 102              	.LVL5:
 103              		.loc 1 364 17 is_stmt 1 view .LVU16
 104              		.loc 1 364 3 is_stmt 0 view .LVU17
 105 0002 9342     		cmp	r3, r2
 106 0004 17D2     		bcs	.L15
 361:USB_DEVICE/App/usbd_desc.c ****   uint8_t idx = 0;
 107              		.loc 1 361 1 view .LVU18
 108 0006 30B4     		push	{r4, r5}
 109              	.LCFI0:
 110              		.cfi_def_cfa_offset 8
 111              		.cfi_offset 4, -8
 112              		.cfi_offset 5, -4
 113 0008 0BE0     		b	.L11
 114              	.L9:
 365:USB_DEVICE/App/usbd_desc.c ****   {
 366:USB_DEVICE/App/usbd_desc.c ****     if (((value >> 28)) < 0xA)
 367:USB_DEVICE/App/usbd_desc.c ****     {
 368:USB_DEVICE/App/usbd_desc.c ****       pbuf[2 * idx] = (value >> 28) + '0';
 369:USB_DEVICE/App/usbd_desc.c ****     }
 370:USB_DEVICE/App/usbd_desc.c ****     else
 371:USB_DEVICE/App/usbd_desc.c ****     {
 372:USB_DEVICE/App/usbd_desc.c ****       pbuf[2 * idx] = (value >> 28) + 'A' - 10;
 115              		.loc 1 372 7 is_stmt 1 view .LVU19
 116              		.loc 1 372 43 is_stmt 0 view .LVU20
 117 000a 3734     		adds	r4, r4, #55
 118              		.loc 1 372 21 view .LVU21
 119 000c 01F81340 		strb	r4, [r1, r3, lsl #1]
 120              	.L10:
 373:USB_DEVICE/App/usbd_desc.c ****     }
 374:USB_DEVICE/App/usbd_desc.c **** 
 375:USB_DEVICE/App/usbd_desc.c ****     value = value << 4;
 121              		.loc 1 375 5 is_stmt 1 discriminator 2 view .LVU22
 122              		.loc 1 375 11 is_stmt 0 discriminator 2 view .LVU23
 123 0010 0001     		lsls	r0, r0, #4
 124              	.LVL6:
 376:USB_DEVICE/App/usbd_desc.c **** 
 377:USB_DEVICE/App/usbd_desc.c ****     pbuf[2 * idx + 1] = 0;
 125              		.loc 1 377 5 is_stmt 1 discriminator 2 view .LVU24
 126              		.loc 1 377 12 is_stmt 0 discriminator 2 view .LVU25
 127 0012 5C00     		lsls	r4, r3, #1
 128              		.loc 1 377 9 discriminator 2 view .LVU26
 129 0014 0134     		adds	r4, r4, #1
 130              		.loc 1 377 23 discriminator 2 view .LVU27
 131 0016 0025     		movs	r5, #0
 132 0018 0D55     		strb	r5, [r1, r4]
 364:USB_DEVICE/App/usbd_desc.c ****   {
 133              		.loc 1 364 28 is_stmt 1 discriminator 2 view .LVU28
 364:USB_DEVICE/App/usbd_desc.c ****   {
 134              		.loc 1 364 31 is_stmt 0 discriminator 2 view .LVU29
 135 001a 0133     		adds	r3, r3, #1
 136              	.LVL7:
 364:USB_DEVICE/App/usbd_desc.c ****   {
 137              		.loc 1 364 31 discriminator 2 view .LVU30
ARM GAS  /tmp/ccF58yb4.s 			page 10


 138 001c DBB2     		uxtb	r3, r3
 139              	.LVL8:
 364:USB_DEVICE/App/usbd_desc.c ****   {
 140              		.loc 1 364 17 is_stmt 1 discriminator 2 view .LVU31
 364:USB_DEVICE/App/usbd_desc.c ****   {
 141              		.loc 1 364 3 is_stmt 0 discriminator 2 view .LVU32
 142 001e 9342     		cmp	r3, r2
 143 0020 07D2     		bcs	.L16
 144              	.L11:
 366:USB_DEVICE/App/usbd_desc.c ****     {
 145              		.loc 1 366 5 is_stmt 1 view .LVU33
 366:USB_DEVICE/App/usbd_desc.c ****     {
 146              		.loc 1 366 17 is_stmt 0 view .LVU34
 147 0022 040F     		lsrs	r4, r0, #28
 366:USB_DEVICE/App/usbd_desc.c ****     {
 148              		.loc 1 366 8 view .LVU35
 149 0024 B0F1204F 		cmp	r0, #-1610612736
 150 0028 EFD2     		bcs	.L9
 368:USB_DEVICE/App/usbd_desc.c ****     }
 151              		.loc 1 368 7 is_stmt 1 view .LVU36
 368:USB_DEVICE/App/usbd_desc.c ****     }
 152              		.loc 1 368 37 is_stmt 0 view .LVU37
 153 002a 3034     		adds	r4, r4, #48
 368:USB_DEVICE/App/usbd_desc.c ****     }
 154              		.loc 1 368 21 view .LVU38
 155 002c 01F81340 		strb	r4, [r1, r3, lsl #1]
 156 0030 EEE7     		b	.L10
 157              	.L16:
 378:USB_DEVICE/App/usbd_desc.c ****   }
 379:USB_DEVICE/App/usbd_desc.c **** }
 158              		.loc 1 379 1 view .LVU39
 159 0032 30BC     		pop	{r4, r5}
 160              	.LCFI1:
 161              		.cfi_restore 5
 162              		.cfi_restore 4
 163              		.cfi_def_cfa_offset 0
 164 0034 7047     		bx	lr
 165              	.L15:
 166              		.loc 1 379 1 view .LVU40
 167 0036 7047     		bx	lr
 168              		.cfi_endproc
 169              	.LFE74:
 171              		.section	.text.Get_SerialNum,"ax",%progbits
 172              		.align	1
 173              		.syntax unified
 174              		.thumb
 175              		.thumb_func
 176              		.fpu softvfp
 178              	Get_SerialNum:
 179              	.LFB73:
 337:USB_DEVICE/App/usbd_desc.c ****   uint32_t deviceserial0, deviceserial1, deviceserial2;
 180              		.loc 1 337 1 is_stmt 1 view -0
 181              		.cfi_startproc
 182              		@ args = 0, pretend = 0, frame = 0
 183              		@ frame_needed = 0, uses_anonymous_args = 0
 184 0000 38B5     		push	{r3, r4, r5, lr}
 185              	.LCFI2:
ARM GAS  /tmp/ccF58yb4.s 			page 11


 186              		.cfi_def_cfa_offset 16
 187              		.cfi_offset 3, -16
 188              		.cfi_offset 4, -12
 189              		.cfi_offset 5, -8
 190              		.cfi_offset 14, -4
 338:USB_DEVICE/App/usbd_desc.c **** 
 191              		.loc 1 338 3 view .LVU42
 340:USB_DEVICE/App/usbd_desc.c ****   deviceserial1 = *(uint32_t *) DEVICE_ID2;
 192              		.loc 1 340 3 view .LVU43
 340:USB_DEVICE/App/usbd_desc.c ****   deviceserial1 = *(uint32_t *) DEVICE_ID2;
 193              		.loc 1 340 17 is_stmt 0 view .LVU44
 194 0002 0A4B     		ldr	r3, .L21
 195 0004 1868     		ldr	r0, [r3]
 196              	.LVL9:
 341:USB_DEVICE/App/usbd_desc.c ****   deviceserial2 = *(uint32_t *) DEVICE_ID3;
 197              		.loc 1 341 3 is_stmt 1 view .LVU45
 341:USB_DEVICE/App/usbd_desc.c ****   deviceserial2 = *(uint32_t *) DEVICE_ID3;
 198              		.loc 1 341 17 is_stmt 0 view .LVU46
 199 0006 0433     		adds	r3, r3, #4
 200 0008 1C68     		ldr	r4, [r3]
 201              	.LVL10:
 342:USB_DEVICE/App/usbd_desc.c **** 
 202              		.loc 1 342 3 is_stmt 1 view .LVU47
 342:USB_DEVICE/App/usbd_desc.c **** 
 203              		.loc 1 342 17 is_stmt 0 view .LVU48
 204 000a 0433     		adds	r3, r3, #4
 205 000c 1B68     		ldr	r3, [r3]
 206              	.LVL11:
 344:USB_DEVICE/App/usbd_desc.c **** 
 207              		.loc 1 344 3 is_stmt 1 view .LVU49
 346:USB_DEVICE/App/usbd_desc.c ****   {
 208              		.loc 1 346 3 view .LVU50
 346:USB_DEVICE/App/usbd_desc.c ****   {
 209              		.loc 1 346 6 is_stmt 0 view .LVU51
 210 000e C018     		adds	r0, r0, r3
 211              	.LVL12:
 346:USB_DEVICE/App/usbd_desc.c ****   {
 212              		.loc 1 346 6 view .LVU52
 213 0010 00D1     		bne	.L20
 214              	.LVL13:
 215              	.L17:
 351:USB_DEVICE/App/usbd_desc.c **** 
 216              		.loc 1 351 1 view .LVU53
 217 0012 38BD     		pop	{r3, r4, r5, pc}
 218              	.LVL14:
 219              	.L20:
 348:USB_DEVICE/App/usbd_desc.c ****     IntToUnicode(deviceserial1, &USBD_StringSerial[18], 4);
 220              		.loc 1 348 5 is_stmt 1 view .LVU54
 221 0014 064D     		ldr	r5, .L21+4
 222 0016 0822     		movs	r2, #8
 223 0018 A91C     		adds	r1, r5, #2
 224 001a FFF7FEFF 		bl	IntToUnicode
 225              	.LVL15:
 349:USB_DEVICE/App/usbd_desc.c ****   }
 226              		.loc 1 349 5 view .LVU55
 227 001e 0422     		movs	r2, #4
 228 0020 05F11201 		add	r1, r5, #18
ARM GAS  /tmp/ccF58yb4.s 			page 12


 229 0024 2046     		mov	r0, r4
 230 0026 FFF7FEFF 		bl	IntToUnicode
 231              	.LVL16:
 351:USB_DEVICE/App/usbd_desc.c **** 
 232              		.loc 1 351 1 is_stmt 0 view .LVU56
 233 002a F2E7     		b	.L17
 234              	.L22:
 235              		.align	2
 236              	.L21:
 237 002c E8F7FF1F 		.word	536868840
 238 0030 00000000 		.word	.LANCHOR2
 239              		.cfi_endproc
 240              	.LFE73:
 242              		.section	.text.USBD_FS_SerialStrDescriptor,"ax",%progbits
 243              		.align	1
 244              		.global	USBD_FS_SerialStrDescriptor
 245              		.syntax unified
 246              		.thumb
 247              		.thumb_func
 248              		.fpu softvfp
 250              	USBD_FS_SerialStrDescriptor:
 251              	.LVL17:
 252              	.LFB70:
 283:USB_DEVICE/App/usbd_desc.c ****   *length = USB_SIZ_STRING_SERIAL;
 253              		.loc 1 283 1 is_stmt 1 view -0
 254              		.cfi_startproc
 255              		@ args = 0, pretend = 0, frame = 0
 256              		@ frame_needed = 0, uses_anonymous_args = 0
 283:USB_DEVICE/App/usbd_desc.c ****   *length = USB_SIZ_STRING_SERIAL;
 257              		.loc 1 283 1 is_stmt 0 view .LVU58
 258 0000 08B5     		push	{r3, lr}
 259              	.LCFI3:
 260              		.cfi_def_cfa_offset 8
 261              		.cfi_offset 3, -8
 262              		.cfi_offset 14, -4
 284:USB_DEVICE/App/usbd_desc.c **** 
 263              		.loc 1 284 3 is_stmt 1 view .LVU59
 284:USB_DEVICE/App/usbd_desc.c **** 
 264              		.loc 1 284 11 is_stmt 0 view .LVU60
 265 0002 1A23     		movs	r3, #26
 266 0004 0B80     		strh	r3, [r1]	@ movhi
 288:USB_DEVICE/App/usbd_desc.c **** 
 267              		.loc 1 288 3 is_stmt 1 view .LVU61
 268 0006 FFF7FEFF 		bl	Get_SerialNum
 269              	.LVL18:
 290:USB_DEVICE/App/usbd_desc.c **** }
 270              		.loc 1 290 3 view .LVU62
 291:USB_DEVICE/App/usbd_desc.c **** 
 271              		.loc 1 291 1 is_stmt 0 view .LVU63
 272 000a 0148     		ldr	r0, .L25
 273 000c 08BD     		pop	{r3, pc}
 274              	.L26:
 275 000e 00BF     		.align	2
 276              	.L25:
 277 0010 00000000 		.word	.LANCHOR2
 278              		.cfi_endproc
 279              	.LFE70:
ARM GAS  /tmp/ccF58yb4.s 			page 13


 281              		.section	.rodata.USBD_FS_ProductStrDescriptor.str1.4,"aMS",%progbits,1
 282              		.align	2
 283              	.LC0:
 284 0000 53544D33 		.ascii	"STM32keyboard\000"
 284      326B6579 
 284      626F6172 
 284      6400
 285              		.section	.text.USBD_FS_ProductStrDescriptor,"ax",%progbits
 286              		.align	1
 287              		.global	USBD_FS_ProductStrDescriptor
 288              		.syntax unified
 289              		.thumb
 290              		.thumb_func
 291              		.fpu softvfp
 293              	USBD_FS_ProductStrDescriptor:
 294              	.LVL19:
 295              	.LFB68:
 252:USB_DEVICE/App/usbd_desc.c ****   if(speed == 0)
 296              		.loc 1 252 1 is_stmt 1 view -0
 297              		.cfi_startproc
 298              		@ args = 0, pretend = 0, frame = 0
 299              		@ frame_needed = 0, uses_anonymous_args = 0
 252:USB_DEVICE/App/usbd_desc.c ****   if(speed == 0)
 300              		.loc 1 252 1 is_stmt 0 view .LVU65
 301 0000 08B5     		push	{r3, lr}
 302              	.LCFI4:
 303              		.cfi_def_cfa_offset 8
 304              		.cfi_offset 3, -8
 305              		.cfi_offset 14, -4
 306 0002 0A46     		mov	r2, r1
 253:USB_DEVICE/App/usbd_desc.c ****   {
 307              		.loc 1 253 3 is_stmt 1 view .LVU66
 253:USB_DEVICE/App/usbd_desc.c ****   {
 308              		.loc 1 253 5 is_stmt 0 view .LVU67
 309 0004 28B9     		cbnz	r0, .L28
 255:USB_DEVICE/App/usbd_desc.c ****   }
 310              		.loc 1 255 5 is_stmt 1 view .LVU68
 311 0006 0549     		ldr	r1, .L31
 312              	.LVL20:
 255:USB_DEVICE/App/usbd_desc.c ****   }
 313              		.loc 1 255 5 is_stmt 0 view .LVU69
 314 0008 0548     		ldr	r0, .L31+4
 315              	.LVL21:
 255:USB_DEVICE/App/usbd_desc.c ****   }
 316              		.loc 1 255 5 view .LVU70
 317 000a FFF7FEFF 		bl	USBD_GetString
 318              	.LVL22:
 319              	.L29:
 261:USB_DEVICE/App/usbd_desc.c **** }
 320              		.loc 1 261 3 is_stmt 1 view .LVU71
 262:USB_DEVICE/App/usbd_desc.c **** 
 321              		.loc 1 262 1 is_stmt 0 view .LVU72
 322 000e 0348     		ldr	r0, .L31
 323 0010 08BD     		pop	{r3, pc}
 324              	.LVL23:
 325              	.L28:
 259:USB_DEVICE/App/usbd_desc.c ****   }
ARM GAS  /tmp/ccF58yb4.s 			page 14


 326              		.loc 1 259 5 is_stmt 1 view .LVU73
 327 0012 0249     		ldr	r1, .L31
 328              	.LVL24:
 259:USB_DEVICE/App/usbd_desc.c ****   }
 329              		.loc 1 259 5 is_stmt 0 view .LVU74
 330 0014 0248     		ldr	r0, .L31+4
 331              	.LVL25:
 259:USB_DEVICE/App/usbd_desc.c ****   }
 332              		.loc 1 259 5 view .LVU75
 333 0016 FFF7FEFF 		bl	USBD_GetString
 334              	.LVL26:
 259:USB_DEVICE/App/usbd_desc.c ****   }
 335              		.loc 1 259 5 view .LVU76
 336 001a F8E7     		b	.L29
 337              	.L32:
 338              		.align	2
 339              	.L31:
 340 001c 00000000 		.word	USBD_StrDesc
 341 0020 00000000 		.word	.LC0
 342              		.cfi_endproc
 343              	.LFE68:
 345              		.section	.rodata.USBD_FS_ManufacturerStrDescriptor.str1.4,"aMS",%progbits,1
 346              		.align	2
 347              	.LC1:
 348 0000 53544D69 		.ascii	"STMicroelectronics\000"
 348      63726F65 
 348      6C656374 
 348      726F6E69 
 348      637300
 349              		.section	.text.USBD_FS_ManufacturerStrDescriptor,"ax",%progbits
 350              		.align	1
 351              		.global	USBD_FS_ManufacturerStrDescriptor
 352              		.syntax unified
 353              		.thumb
 354              		.thumb_func
 355              		.fpu softvfp
 357              	USBD_FS_ManufacturerStrDescriptor:
 358              	.LVL27:
 359              	.LFB69:
 271:USB_DEVICE/App/usbd_desc.c ****   USBD_GetString((uint8_t *)USBD_MANUFACTURER_STRING, USBD_StrDesc, length);
 360              		.loc 1 271 1 is_stmt 1 view -0
 361              		.cfi_startproc
 362              		@ args = 0, pretend = 0, frame = 0
 363              		@ frame_needed = 0, uses_anonymous_args = 0
 271:USB_DEVICE/App/usbd_desc.c ****   USBD_GetString((uint8_t *)USBD_MANUFACTURER_STRING, USBD_StrDesc, length);
 364              		.loc 1 271 1 is_stmt 0 view .LVU78
 365 0000 10B5     		push	{r4, lr}
 366              	.LCFI5:
 367              		.cfi_def_cfa_offset 8
 368              		.cfi_offset 4, -8
 369              		.cfi_offset 14, -4
 370 0002 0A46     		mov	r2, r1
 272:USB_DEVICE/App/usbd_desc.c ****   return USBD_StrDesc;
 371              		.loc 1 272 3 is_stmt 1 view .LVU79
 372 0004 034C     		ldr	r4, .L35
 373 0006 2146     		mov	r1, r4
 374              	.LVL28:
ARM GAS  /tmp/ccF58yb4.s 			page 15


 272:USB_DEVICE/App/usbd_desc.c ****   return USBD_StrDesc;
 375              		.loc 1 272 3 is_stmt 0 view .LVU80
 376 0008 0348     		ldr	r0, .L35+4
 377              	.LVL29:
 272:USB_DEVICE/App/usbd_desc.c ****   return USBD_StrDesc;
 378              		.loc 1 272 3 view .LVU81
 379 000a FFF7FEFF 		bl	USBD_GetString
 380              	.LVL30:
 273:USB_DEVICE/App/usbd_desc.c **** }
 381              		.loc 1 273 3 is_stmt 1 view .LVU82
 274:USB_DEVICE/App/usbd_desc.c **** 
 382              		.loc 1 274 1 is_stmt 0 view .LVU83
 383 000e 2046     		mov	r0, r4
 384 0010 10BD     		pop	{r4, pc}
 385              	.L36:
 386 0012 00BF     		.align	2
 387              	.L35:
 388 0014 00000000 		.word	USBD_StrDesc
 389 0018 00000000 		.word	.LC1
 390              		.cfi_endproc
 391              	.LFE69:
 393              		.section	.rodata.USBD_FS_ConfigStrDescriptor.str1.4,"aMS",%progbits,1
 394              		.align	2
 395              	.LC2:
 396 0000 48494420 		.ascii	"HID Config\000"
 396      436F6E66 
 396      696700
 397              		.section	.text.USBD_FS_ConfigStrDescriptor,"ax",%progbits
 398              		.align	1
 399              		.global	USBD_FS_ConfigStrDescriptor
 400              		.syntax unified
 401              		.thumb
 402              		.thumb_func
 403              		.fpu softvfp
 405              	USBD_FS_ConfigStrDescriptor:
 406              	.LVL31:
 407              	.LFB71:
 300:USB_DEVICE/App/usbd_desc.c ****   if(speed == USBD_SPEED_HIGH)
 408              		.loc 1 300 1 is_stmt 1 view -0
 409              		.cfi_startproc
 410              		@ args = 0, pretend = 0, frame = 0
 411              		@ frame_needed = 0, uses_anonymous_args = 0
 300:USB_DEVICE/App/usbd_desc.c ****   if(speed == USBD_SPEED_HIGH)
 412              		.loc 1 300 1 is_stmt 0 view .LVU85
 413 0000 08B5     		push	{r3, lr}
 414              	.LCFI6:
 415              		.cfi_def_cfa_offset 8
 416              		.cfi_offset 3, -8
 417              		.cfi_offset 14, -4
 418 0002 0A46     		mov	r2, r1
 301:USB_DEVICE/App/usbd_desc.c ****   {
 419              		.loc 1 301 3 is_stmt 1 view .LVU86
 301:USB_DEVICE/App/usbd_desc.c ****   {
 420              		.loc 1 301 5 is_stmt 0 view .LVU87
 421 0004 28B9     		cbnz	r0, .L38
 303:USB_DEVICE/App/usbd_desc.c ****   }
 422              		.loc 1 303 5 is_stmt 1 view .LVU88
ARM GAS  /tmp/ccF58yb4.s 			page 16


 423 0006 0549     		ldr	r1, .L41
 424              	.LVL32:
 303:USB_DEVICE/App/usbd_desc.c ****   }
 425              		.loc 1 303 5 is_stmt 0 view .LVU89
 426 0008 0548     		ldr	r0, .L41+4
 427              	.LVL33:
 303:USB_DEVICE/App/usbd_desc.c ****   }
 428              		.loc 1 303 5 view .LVU90
 429 000a FFF7FEFF 		bl	USBD_GetString
 430              	.LVL34:
 431              	.L39:
 309:USB_DEVICE/App/usbd_desc.c **** }
 432              		.loc 1 309 3 is_stmt 1 view .LVU91
 310:USB_DEVICE/App/usbd_desc.c **** 
 433              		.loc 1 310 1 is_stmt 0 view .LVU92
 434 000e 0348     		ldr	r0, .L41
 435 0010 08BD     		pop	{r3, pc}
 436              	.LVL35:
 437              	.L38:
 307:USB_DEVICE/App/usbd_desc.c ****   }
 438              		.loc 1 307 5 is_stmt 1 view .LVU93
 439 0012 0249     		ldr	r1, .L41
 440              	.LVL36:
 307:USB_DEVICE/App/usbd_desc.c ****   }
 441              		.loc 1 307 5 is_stmt 0 view .LVU94
 442 0014 0248     		ldr	r0, .L41+4
 443              	.LVL37:
 307:USB_DEVICE/App/usbd_desc.c ****   }
 444              		.loc 1 307 5 view .LVU95
 445 0016 FFF7FEFF 		bl	USBD_GetString
 446              	.LVL38:
 307:USB_DEVICE/App/usbd_desc.c ****   }
 447              		.loc 1 307 5 view .LVU96
 448 001a F8E7     		b	.L39
 449              	.L42:
 450              		.align	2
 451              	.L41:
 452 001c 00000000 		.word	USBD_StrDesc
 453 0020 00000000 		.word	.LC2
 454              		.cfi_endproc
 455              	.LFE71:
 457              		.section	.rodata.USBD_FS_InterfaceStrDescriptor.str1.4,"aMS",%progbits,1
 458              		.align	2
 459              	.LC3:
 460 0000 48494420 		.ascii	"HID Interface\000"
 460      496E7465 
 460      72666163 
 460      6500
 461              		.section	.text.USBD_FS_InterfaceStrDescriptor,"ax",%progbits
 462              		.align	1
 463              		.global	USBD_FS_InterfaceStrDescriptor
 464              		.syntax unified
 465              		.thumb
 466              		.thumb_func
 467              		.fpu softvfp
 469              	USBD_FS_InterfaceStrDescriptor:
 470              	.LVL39:
ARM GAS  /tmp/ccF58yb4.s 			page 17


 471              	.LFB72:
 319:USB_DEVICE/App/usbd_desc.c ****   if(speed == 0)
 472              		.loc 1 319 1 is_stmt 1 view -0
 473              		.cfi_startproc
 474              		@ args = 0, pretend = 0, frame = 0
 475              		@ frame_needed = 0, uses_anonymous_args = 0
 319:USB_DEVICE/App/usbd_desc.c ****   if(speed == 0)
 476              		.loc 1 319 1 is_stmt 0 view .LVU98
 477 0000 08B5     		push	{r3, lr}
 478              	.LCFI7:
 479              		.cfi_def_cfa_offset 8
 480              		.cfi_offset 3, -8
 481              		.cfi_offset 14, -4
 482 0002 0A46     		mov	r2, r1
 320:USB_DEVICE/App/usbd_desc.c ****   {
 483              		.loc 1 320 3 is_stmt 1 view .LVU99
 320:USB_DEVICE/App/usbd_desc.c ****   {
 484              		.loc 1 320 5 is_stmt 0 view .LVU100
 485 0004 28B9     		cbnz	r0, .L44
 322:USB_DEVICE/App/usbd_desc.c ****   }
 486              		.loc 1 322 5 is_stmt 1 view .LVU101
 487 0006 0549     		ldr	r1, .L47
 488              	.LVL40:
 322:USB_DEVICE/App/usbd_desc.c ****   }
 489              		.loc 1 322 5 is_stmt 0 view .LVU102
 490 0008 0548     		ldr	r0, .L47+4
 491              	.LVL41:
 322:USB_DEVICE/App/usbd_desc.c ****   }
 492              		.loc 1 322 5 view .LVU103
 493 000a FFF7FEFF 		bl	USBD_GetString
 494              	.LVL42:
 495              	.L45:
 328:USB_DEVICE/App/usbd_desc.c **** }
 496              		.loc 1 328 3 is_stmt 1 view .LVU104
 329:USB_DEVICE/App/usbd_desc.c **** 
 497              		.loc 1 329 1 is_stmt 0 view .LVU105
 498 000e 0348     		ldr	r0, .L47
 499 0010 08BD     		pop	{r3, pc}
 500              	.LVL43:
 501              	.L44:
 326:USB_DEVICE/App/usbd_desc.c ****   }
 502              		.loc 1 326 5 is_stmt 1 view .LVU106
 503 0012 0249     		ldr	r1, .L47
 504              	.LVL44:
 326:USB_DEVICE/App/usbd_desc.c ****   }
 505              		.loc 1 326 5 is_stmt 0 view .LVU107
 506 0014 0248     		ldr	r0, .L47+4
 507              	.LVL45:
 326:USB_DEVICE/App/usbd_desc.c ****   }
 508              		.loc 1 326 5 view .LVU108
 509 0016 FFF7FEFF 		bl	USBD_GetString
 510              	.LVL46:
 326:USB_DEVICE/App/usbd_desc.c ****   }
 511              		.loc 1 326 5 view .LVU109
 512 001a F8E7     		b	.L45
 513              	.L48:
 514              		.align	2
ARM GAS  /tmp/ccF58yb4.s 			page 18


 515              	.L47:
 516 001c 00000000 		.word	USBD_StrDesc
 517 0020 00000000 		.word	.LC3
 518              		.cfi_endproc
 519              	.LFE72:
 521              		.global	USBD_StringSerial
 522              		.comm	USBD_StrDesc,512,4
 523              		.global	USBD_LangIDDesc
 524              		.global	USBD_FS_DeviceDesc
 525              		.global	FS_Desc
 526              		.section	.data.FS_Desc,"aw"
 527              		.align	2
 530              	FS_Desc:
 531 0000 00000000 		.word	USBD_FS_DeviceDescriptor
 532 0004 00000000 		.word	USBD_FS_LangIDStrDescriptor
 533 0008 00000000 		.word	USBD_FS_ManufacturerStrDescriptor
 534 000c 00000000 		.word	USBD_FS_ProductStrDescriptor
 535 0010 00000000 		.word	USBD_FS_SerialStrDescriptor
 536 0014 00000000 		.word	USBD_FS_ConfigStrDescriptor
 537 0018 00000000 		.word	USBD_FS_InterfaceStrDescriptor
 538              		.section	.data.USBD_FS_DeviceDesc,"aw"
 539              		.align	2
 540              		.set	.LANCHOR0,. + 0
 543              	USBD_FS_DeviceDesc:
 544 0000 12010002 		.ascii	"\022\001\000\002\000\000\000@\203\004+W\000\002\001"
 544      00000040 
 544      83042B57 
 544      000201
 545 000f 020301   		.ascii	"\002\003\001"
 546              		.section	.data.USBD_LangIDDesc,"aw"
 547              		.align	2
 548              		.set	.LANCHOR1,. + 0
 551              	USBD_LangIDDesc:
 552 0000 04030904 		.ascii	"\004\003\011\004"
 553              		.section	.data.USBD_StringSerial,"aw"
 554              		.align	2
 555              		.set	.LANCHOR2,. + 0
 558              	USBD_StringSerial:
 559 0000 1A0300   		.ascii	"\032\003\000"
 560 0003 00000000 		.space	23
 560      00000000 
 560      00000000 
 560      00000000 
 560      00000000 
 561              		.text
 562              	.Letext0:
 563              		.file 2 "/usr/include/newlib/machine/_default_types.h"
 564              		.file 3 "/usr/lib/gcc/arm-none-eabi/9.2.1/include/stddef.h"
 565              		.file 4 "/usr/include/newlib/sys/_types.h"
 566              		.file 5 "/usr/include/newlib/sys/reent.h"
 567              		.file 6 "/usr/include/newlib/sys/lock.h"
 568              		.file 7 "/usr/include/newlib/sys/_stdint.h"
 569              		.file 8 "/usr/include/newlib/stdlib.h"
 570              		.file 9 "Drivers/CMSIS/Include/core_cm3.h"
 571              		.file 10 "Drivers/CMSIS/Device/ST/STM32F1xx/Include/system_stm32f1xx.h"
 572              		.file 11 "Drivers/STM32F1xx_HAL_Driver/Inc/stm32f1xx_hal.h"
 573              		.file 12 "Middlewares/ST/STM32_USB_Device_Library/Core/Inc/usbd_def.h"
ARM GAS  /tmp/ccF58yb4.s 			page 19


 574              		.file 13 "USB_DEVICE/App/usbd_desc.h"
 575              		.file 14 "Middlewares/ST/STM32_USB_Device_Library/Core/Inc/usbd_ctlreq.h"
ARM GAS  /tmp/ccF58yb4.s 			page 20

